
Hyperion_Spinning_LED.elf:     file format elf32-avr

Sections:
Idx Name          Size      VMA       LMA       File off  Algn
  0 .data         00000000  00800100  00800100  00001526  2**0
                  CONTENTS, ALLOC, LOAD, DATA
  1 .text         000014b2  00000000  00000000  00000074  2**1
                  CONTENTS, ALLOC, LOAD, READONLY, CODE
  2 .bss          00000001  00800100  00800100  00001526  2**0
                  ALLOC
  3 .comment      00000030  00000000  00000000  00001526  2**0
                  CONTENTS, READONLY
  4 .note.gnu.avr.deviceinfo 00000040  00000000  00000000  00001558  2**2
                  CONTENTS, READONLY
  5 .debug_aranges 000000d8  00000000  00000000  00001598  2**3
                  CONTENTS, READONLY, DEBUGGING
  6 .debug_info   000046a4  00000000  00000000  00001670  2**0
                  CONTENTS, READONLY, DEBUGGING
  7 .debug_abbrev 0000094f  00000000  00000000  00005d14  2**0
                  CONTENTS, READONLY, DEBUGGING
  8 .debug_line   00001ada  00000000  00000000  00006663  2**0
                  CONTENTS, READONLY, DEBUGGING
  9 .debug_frame  000000ac  00000000  00000000  00008140  2**2
                  CONTENTS, READONLY, DEBUGGING
 10 .debug_str    000101fb  00000000  00000000  000081ec  2**0
                  CONTENTS, READONLY, DEBUGGING
 11 .debug_loc    000039ec  00000000  00000000  000183e7  2**0
                  CONTENTS, READONLY, DEBUGGING
 12 .debug_ranges 00000038  00000000  00000000  0001bdd3  2**0
                  CONTENTS, READONLY, DEBUGGING
 13 .debug_macro  00003d98  00000000  00000000  0001be0b  2**0
                  CONTENTS, READONLY, DEBUGGING

Disassembly of section .text:

00000000 <__vectors>:
       0:	6e c0       	rjmp	.+220    	; 0xde <__ctors_end>
       2:	00 00       	nop
       4:	89 c0       	rjmp	.+274    	; 0x118 <__bad_interrupt>
       6:	00 00       	nop
       8:	87 c0       	rjmp	.+270    	; 0x118 <__bad_interrupt>
       a:	00 00       	nop
       c:	85 c0       	rjmp	.+266    	; 0x118 <__bad_interrupt>
       e:	00 00       	nop
      10:	83 c0       	rjmp	.+262    	; 0x118 <__bad_interrupt>
      12:	00 00       	nop
      14:	81 c0       	rjmp	.+258    	; 0x118 <__bad_interrupt>
      16:	00 00       	nop
      18:	7f c0       	rjmp	.+254    	; 0x118 <__bad_interrupt>
      1a:	00 00       	nop
      1c:	7d c0       	rjmp	.+250    	; 0x118 <__bad_interrupt>
      1e:	00 00       	nop
      20:	7b c0       	rjmp	.+246    	; 0x118 <__bad_interrupt>
      22:	00 00       	nop
      24:	79 c0       	rjmp	.+242    	; 0x118 <__bad_interrupt>
      26:	00 00       	nop
      28:	77 c0       	rjmp	.+238    	; 0x118 <__bad_interrupt>
      2a:	00 00       	nop
      2c:	75 c0       	rjmp	.+234    	; 0x118 <__bad_interrupt>
      2e:	00 00       	nop
      30:	73 c0       	rjmp	.+230    	; 0x118 <__bad_interrupt>
      32:	00 00       	nop
      34:	71 c0       	rjmp	.+226    	; 0x118 <__bad_interrupt>
      36:	00 00       	nop
      38:	6f c0       	rjmp	.+222    	; 0x118 <__bad_interrupt>
      3a:	00 00       	nop
      3c:	6d c0       	rjmp	.+218    	; 0x118 <__bad_interrupt>
      3e:	00 00       	nop
      40:	6b c0       	rjmp	.+214    	; 0x118 <__bad_interrupt>
      42:	00 00       	nop
      44:	69 c0       	rjmp	.+210    	; 0x118 <__bad_interrupt>
      46:	00 00       	nop
      48:	67 c0       	rjmp	.+206    	; 0x118 <__bad_interrupt>
      4a:	00 00       	nop
      4c:	65 c0       	rjmp	.+202    	; 0x118 <__bad_interrupt>
      4e:	00 00       	nop
      50:	63 c0       	rjmp	.+198    	; 0x118 <__bad_interrupt>
      52:	00 00       	nop
      54:	61 c0       	rjmp	.+194    	; 0x118 <__bad_interrupt>
      56:	00 00       	nop
      58:	5f c0       	rjmp	.+190    	; 0x118 <__bad_interrupt>
      5a:	00 00       	nop
      5c:	5d c0       	rjmp	.+186    	; 0x118 <__bad_interrupt>
      5e:	00 00       	nop
      60:	5b c0       	rjmp	.+182    	; 0x118 <__bad_interrupt>
      62:	00 00       	nop
      64:	59 c0       	rjmp	.+178    	; 0x118 <__bad_interrupt>
      66:	00 00       	nop
      68:	b2 06       	cpc	r11, r18
      6a:	49 07       	cpc	r20, r25
      6c:	bb 09       	sbc	r27, r11
      6e:	bb 09       	sbc	r27, r11
      70:	bb 09       	sbc	r27, r11
      72:	bb 09       	sbc	r27, r11
      74:	bb 09       	sbc	r27, r11
      76:	bb 09       	sbc	r27, r11
      78:	bb 09       	sbc	r27, r11
      7a:	bb 09       	sbc	r27, r11
      7c:	bb 09       	sbc	r27, r11
      7e:	bb 09       	sbc	r27, r11
      80:	bb 09       	sbc	r27, r11
      82:	bb 09       	sbc	r27, r11
      84:	ea 06       	cpc	r14, r26
      86:	bb 09       	sbc	r27, r11
      88:	6c 07       	cpc	r22, r28
      8a:	a6 07       	cpc	r26, r22
      8c:	e2 07       	cpc	r30, r18
      8e:	1e 08       	sbc	r1, r14
      90:	59 08       	sbc	r5, r9
      92:	94 08       	sbc	r9, r4
      94:	cf 08       	sbc	r12, r15
      96:	0a 09       	sbc	r16, r10
      98:	47 09       	sbc	r20, r7
      9a:	81 09       	sbc	r24, r1
      9c:	bb 09       	sbc	r27, r11
      9e:	bb 09       	sbc	r27, r11
      a0:	bb 09       	sbc	r27, r11
      a2:	bb 09       	sbc	r27, r11
      a4:	bb 09       	sbc	r27, r11
      a6:	0d 07       	cpc	r16, r29
      a8:	bb 09       	sbc	r27, r11
      aa:	af 00       	.word	0x00af	; ????
      ac:	eb 00       	.word	0x00eb	; ????
      ae:	28 01       	movw	r4, r16
      b0:	64 01       	movw	r12, r8
      b2:	a0 01       	movw	r20, r0
      b4:	da 01       	movw	r26, r20
      b6:	14 02       	muls	r17, r20
      b8:	50 02       	muls	r21, r16
      ba:	8a 02       	muls	r24, r26
      bc:	c4 02       	muls	r28, r20
      be:	ff 02       	muls	r31, r31
      c0:	3c 03       	fmul	r19, r20
      c2:	76 03       	mulsu	r23, r22
      c4:	b1 03       	fmuls	r19, r17
      c6:	ed 03       	fmulsu	r22, r21
      c8:	27 04       	cpc	r2, r7
      ca:	62 04       	cpc	r6, r2
      cc:	9f 04       	cpc	r9, r15
      ce:	da 04       	cpc	r13, r10
      d0:	15 05       	cpc	r17, r5
      d2:	4f 05       	cpc	r20, r15
      d4:	89 05       	cpc	r24, r9
      d6:	c4 05       	cpc	r28, r4
      d8:	ff 05       	cpc	r31, r15
      da:	3a 06       	cpc	r3, r26
      dc:	75 06       	cpc	r7, r21

000000de <__ctors_end>:
      de:	11 24       	eor	r1, r1
      e0:	1f be       	out	0x3f, r1	; 63
      e2:	cf ef       	ldi	r28, 0xFF	; 255
      e4:	d8 e0       	ldi	r29, 0x08	; 8
      e6:	de bf       	out	0x3e, r29	; 62
      e8:	cd bf       	out	0x3d, r28	; 61

000000ea <__do_copy_data>:
      ea:	11 e0       	ldi	r17, 0x01	; 1
      ec:	a0 e0       	ldi	r26, 0x00	; 0
      ee:	b1 e0       	ldi	r27, 0x01	; 1
      f0:	e2 eb       	ldi	r30, 0xB2	; 178
      f2:	f4 e1       	ldi	r31, 0x14	; 20
      f4:	02 c0       	rjmp	.+4      	; 0xfa <__do_copy_data+0x10>
      f6:	05 90       	lpm	r0, Z+
      f8:	0d 92       	st	X+, r0
      fa:	a0 30       	cpi	r26, 0x00	; 0
      fc:	b1 07       	cpc	r27, r17
      fe:	d9 f7       	brne	.-10     	; 0xf6 <__do_copy_data+0xc>

00000100 <__do_clear_bss>:
     100:	21 e0       	ldi	r18, 0x01	; 1
     102:	a0 e0       	ldi	r26, 0x00	; 0
     104:	b1 e0       	ldi	r27, 0x01	; 1
     106:	01 c0       	rjmp	.+2      	; 0x10a <.do_clear_bss_start>

00000108 <.do_clear_bss_loop>:
     108:	1d 92       	st	X+, r1

0000010a <.do_clear_bss_start>:
     10a:	a1 30       	cpi	r26, 0x01	; 1
     10c:	b2 07       	cpc	r27, r18
     10e:	e1 f7       	brne	.-8      	; 0x108 <.do_clear_bss_loop>
     110:	0e 94 f9 09 	call	0x13f2	; 0x13f2 <main>
     114:	0c 94 57 0a 	jmp	0x14ae	; 0x14ae <_exit>

00000118 <__bad_interrupt>:
     118:	73 cf       	rjmp	.-282    	; 0x0 <__vectors>

0000011a <UART_Get>:
.global ASCII

.section ".text"
.global UART_Get
UART_Get:
	lds		r16,UCSR0A
     11a:	00 91 c0 00 	lds	r16, 0x00C0	; 0x8000c0 <__TEXT_REGION_LENGTH__+0x7e00c0>
	sbrs	r16,RXC0
     11e:	07 ff       	sbrs	r16, 7
	rjmp	UART_Get
     120:	fc cf       	rjmp	.-8      	; 0x11a <UART_Get>
	lds		r16,UDR0
     122:	00 91 c6 00 	lds	r16, 0x00C6	; 0x8000c6 <__TEXT_REGION_LENGTH__+0x7e00c6>
	sts		ASCII,r16
     126:	00 93 00 01 	sts	0x0100, r16	; 0x800100 <__data_end>
     12a:	08 95       	ret

0000012c <board_init>:
		port_pin_flags_t flags)
{
	/* Select direction and initial pin state */
	if (flags & IOPORT_DIR_OUTPUT) {
		if (flags & IOPORT_INIT_HIGH) {
			*((uint8_t *)port + 2) |= pin_mask;
     12c:	95 b1       	in	r25, 0x05	; 5
			*((uint8_t *)port + 2) &= ~pin_mask;
		}

		*((uint8_t *)port + 1) |= pin_mask;
	} else {
		*((uint8_t *)port + 1) &= ~pin_mask;
     12e:	84 b1       	in	r24, 0x04	; 4
     130:	80 62       	ori	r24, 0x20	; 32
     132:	8f 77       	andi	r24, 0x7F	; 127
     134:	84 b9       	out	0x04, r24	; 4
		if (flags & IOPORT_PULL_UP) {
			*((uint8_t *)port + 2) |= pin_mask;
     136:	89 2f       	mov	r24, r25
     138:	80 6a       	ori	r24, 0xA0	; 160
     13a:	85 b9       	out	0x05, r24	; 5
     13c:	08 95       	ret

0000013e <displayCharacter>:
// For each "frame", change the LEDs to the new pattern
// Each frame is given in hex
void displayCharacter (char character) {
	
	//Look for the pattern for the character the user wants to display
	switch (character)
     13e:	08 2e       	mov	r0, r24
     140:	00 0c       	add	r0, r0
     142:	99 0b       	sbc	r25, r25
     144:	aa 0b       	sbc	r26, r26
     146:	bb 0b       	sbc	r27, r27
     148:	fc 01       	movw	r30, r24
     14a:	b0 97       	sbiw	r30, 0x20	; 32
     14c:	eb 33       	cpi	r30, 0x3B	; 59
     14e:	f1 05       	cpc	r31, r1
     150:	10 f0       	brcs	.+4      	; 0x156 <displayCharacter+0x18>
     152:	0c 94 bb 09 	jmp	0x1376	; 0x1376 <__stack+0xa77>
     156:	ec 5c       	subi	r30, 0xCC	; 204
     158:	ff 4f       	sbci	r31, 0xFF	; 255
     15a:	0c 94 2a 0a 	jmp	0x1454	; 0x1454 <__tablejump2__>
	{
		case 'A':
			//1F 24 44 24 1F
			PORTD = 0x1F;
     15e:	8f e1       	ldi	r24, 0x1F	; 31
     160:	8b b9       	out	0x0b, r24	; 11
	#else
		//round up by default
		__ticks_dc = (uint32_t)(ceil(fabs(__tmp)));
	#endif

	__builtin_avr_delay_cycles(__ticks_dc);
     162:	2a ea       	ldi	r18, 0xAA	; 170
     164:	36 ee       	ldi	r19, 0xE6	; 230
     166:	46 e9       	ldi	r20, 0x96	; 150
     168:	51 e0       	ldi	r21, 0x01	; 1
     16a:	21 50       	subi	r18, 0x01	; 1
     16c:	30 40       	sbci	r19, 0x00	; 0
     16e:	40 40       	sbci	r20, 0x00	; 0
     170:	50 40       	sbci	r21, 0x00	; 0
     172:	d9 f7       	brne	.-10     	; 0x16a <displayCharacter+0x2c>
     174:	00 00       	nop
			delay();
			PORTD = 0x24;
     176:	94 e2       	ldi	r25, 0x24	; 36
     178:	9b b9       	out	0x0b, r25	; 11
     17a:	2a ea       	ldi	r18, 0xAA	; 170
     17c:	36 ee       	ldi	r19, 0xE6	; 230
     17e:	46 e9       	ldi	r20, 0x96	; 150
     180:	51 e0       	ldi	r21, 0x01	; 1
     182:	21 50       	subi	r18, 0x01	; 1
     184:	30 40       	sbci	r19, 0x00	; 0
     186:	40 40       	sbci	r20, 0x00	; 0
     188:	50 40       	sbci	r21, 0x00	; 0
     18a:	d9 f7       	brne	.-10     	; 0x182 <displayCharacter+0x44>
     18c:	00 00       	nop
			delay();
			PORTD = 0x44;
     18e:	24 e4       	ldi	r18, 0x44	; 68
     190:	2b b9       	out	0x0b, r18	; 11
     192:	2a ea       	ldi	r18, 0xAA	; 170
     194:	36 ee       	ldi	r19, 0xE6	; 230
     196:	46 e9       	ldi	r20, 0x96	; 150
     198:	51 e0       	ldi	r21, 0x01	; 1
     19a:	21 50       	subi	r18, 0x01	; 1
     19c:	30 40       	sbci	r19, 0x00	; 0
     19e:	40 40       	sbci	r20, 0x00	; 0
     1a0:	50 40       	sbci	r21, 0x00	; 0
     1a2:	d9 f7       	brne	.-10     	; 0x19a <displayCharacter+0x5c>
     1a4:	00 00       	nop
			delay();
			PORTD = 0x24;
     1a6:	9b b9       	out	0x0b, r25	; 11
     1a8:	9a ea       	ldi	r25, 0xAA	; 170
     1aa:	26 ee       	ldi	r18, 0xE6	; 230
     1ac:	36 e9       	ldi	r19, 0x96	; 150
     1ae:	41 e0       	ldi	r20, 0x01	; 1
     1b0:	91 50       	subi	r25, 0x01	; 1
     1b2:	20 40       	sbci	r18, 0x00	; 0
     1b4:	30 40       	sbci	r19, 0x00	; 0
     1b6:	40 40       	sbci	r20, 0x00	; 0
     1b8:	d9 f7       	brne	.-10     	; 0x1b0 <displayCharacter+0x72>
     1ba:	00 00       	nop
			delay();
			PORTD = 0x1F;
     1bc:	8b b9       	out	0x0b, r24	; 11
     1be:	5a ea       	ldi	r21, 0xAA	; 170
     1c0:	86 ee       	ldi	r24, 0xE6	; 230
     1c2:	96 e9       	ldi	r25, 0x96	; 150
     1c4:	21 e0       	ldi	r18, 0x01	; 1
     1c6:	51 50       	subi	r21, 0x01	; 1
     1c8:	80 40       	sbci	r24, 0x00	; 0
     1ca:	90 40       	sbci	r25, 0x00	; 0
     1cc:	20 40       	sbci	r18, 0x00	; 0
     1ce:	d9 f7       	brne	.-10     	; 0x1c6 <displayCharacter+0x88>
     1d0:	00 00       	nop
     1d2:	0c 94 bb 09 	jmp	0x1376	; 0x1376 <__stack+0xa77>
			delay();
			break;
		case 'B':
			//7F 49 49 49 36
			PORTD = 0x7F;
     1d6:	8f e7       	ldi	r24, 0x7F	; 127
     1d8:	8b b9       	out	0x0b, r24	; 11
     1da:	3a ea       	ldi	r19, 0xAA	; 170
     1dc:	46 ee       	ldi	r20, 0xE6	; 230
     1de:	56 e9       	ldi	r21, 0x96	; 150
     1e0:	81 e0       	ldi	r24, 0x01	; 1
     1e2:	31 50       	subi	r19, 0x01	; 1
     1e4:	40 40       	sbci	r20, 0x00	; 0
     1e6:	50 40       	sbci	r21, 0x00	; 0
     1e8:	80 40       	sbci	r24, 0x00	; 0
     1ea:	d9 f7       	brne	.-10     	; 0x1e2 <displayCharacter+0xa4>
     1ec:	00 00       	nop
			delay();
			PORTD = 0x24;
     1ee:	84 e2       	ldi	r24, 0x24	; 36
     1f0:	8b b9       	out	0x0b, r24	; 11
     1f2:	9a ea       	ldi	r25, 0xAA	; 170
     1f4:	26 ee       	ldi	r18, 0xE6	; 230
     1f6:	36 e9       	ldi	r19, 0x96	; 150
     1f8:	41 e0       	ldi	r20, 0x01	; 1
     1fa:	91 50       	subi	r25, 0x01	; 1
     1fc:	20 40       	sbci	r18, 0x00	; 0
     1fe:	30 40       	sbci	r19, 0x00	; 0
     200:	40 40       	sbci	r20, 0x00	; 0
     202:	d9 f7       	brne	.-10     	; 0x1fa <displayCharacter+0xbc>
     204:	00 00       	nop
			delay();
			PORTD = 0x49;
     206:	89 e4       	ldi	r24, 0x49	; 73
     208:	8b b9       	out	0x0b, r24	; 11
     20a:	5a ea       	ldi	r21, 0xAA	; 170
     20c:	96 ee       	ldi	r25, 0xE6	; 230
     20e:	26 e9       	ldi	r18, 0x96	; 150
     210:	31 e0       	ldi	r19, 0x01	; 1
     212:	51 50       	subi	r21, 0x01	; 1
     214:	90 40       	sbci	r25, 0x00	; 0
     216:	20 40       	sbci	r18, 0x00	; 0
     218:	30 40       	sbci	r19, 0x00	; 0
     21a:	d9 f7       	brne	.-10     	; 0x212 <displayCharacter+0xd4>
     21c:	00 00       	nop
			delay();
			PORTD = 0x49;
     21e:	8b b9       	out	0x0b, r24	; 11
     220:	4a ea       	ldi	r20, 0xAA	; 170
     222:	56 ee       	ldi	r21, 0xE6	; 230
     224:	86 e9       	ldi	r24, 0x96	; 150
     226:	91 e0       	ldi	r25, 0x01	; 1
     228:	41 50       	subi	r20, 0x01	; 1
     22a:	50 40       	sbci	r21, 0x00	; 0
     22c:	80 40       	sbci	r24, 0x00	; 0
     22e:	90 40       	sbci	r25, 0x00	; 0
     230:	d9 f7       	brne	.-10     	; 0x228 <displayCharacter+0xea>
     232:	00 00       	nop
			delay();
			PORTD = 0x36;
     234:	86 e3       	ldi	r24, 0x36	; 54
     236:	8b b9       	out	0x0b, r24	; 11
     238:	2a ea       	ldi	r18, 0xAA	; 170
     23a:	36 ee       	ldi	r19, 0xE6	; 230
     23c:	46 e9       	ldi	r20, 0x96	; 150
     23e:	51 e0       	ldi	r21, 0x01	; 1
     240:	21 50       	subi	r18, 0x01	; 1
     242:	30 40       	sbci	r19, 0x00	; 0
     244:	40 40       	sbci	r20, 0x00	; 0
     246:	50 40       	sbci	r21, 0x00	; 0
     248:	d9 f7       	brne	.-10     	; 0x240 <displayCharacter+0x102>
     24a:	00 00       	nop
     24c:	0c 94 bb 09 	jmp	0x1376	; 0x1376 <__stack+0xa77>
			delay();
			break;
		case 'C':
			//3D 41 41 41 22
			PORTD = 0x3D;
     250:	8d e3       	ldi	r24, 0x3D	; 61
     252:	8b b9       	out	0x0b, r24	; 11
     254:	8a ea       	ldi	r24, 0xAA	; 170
     256:	96 ee       	ldi	r25, 0xE6	; 230
     258:	26 e9       	ldi	r18, 0x96	; 150
     25a:	31 e0       	ldi	r19, 0x01	; 1
     25c:	81 50       	subi	r24, 0x01	; 1
     25e:	90 40       	sbci	r25, 0x00	; 0
     260:	20 40       	sbci	r18, 0x00	; 0
     262:	30 40       	sbci	r19, 0x00	; 0
     264:	d9 f7       	brne	.-10     	; 0x25c <displayCharacter+0x11e>
     266:	00 00       	nop
			delay();
			PORTD = 0x41;
     268:	81 e4       	ldi	r24, 0x41	; 65
     26a:	8b b9       	out	0x0b, r24	; 11
     26c:	4a ea       	ldi	r20, 0xAA	; 170
     26e:	56 ee       	ldi	r21, 0xE6	; 230
     270:	96 e9       	ldi	r25, 0x96	; 150
     272:	21 e0       	ldi	r18, 0x01	; 1
     274:	41 50       	subi	r20, 0x01	; 1
     276:	50 40       	sbci	r21, 0x00	; 0
     278:	90 40       	sbci	r25, 0x00	; 0
     27a:	20 40       	sbci	r18, 0x00	; 0
     27c:	d9 f7       	brne	.-10     	; 0x274 <displayCharacter+0x136>
     27e:	00 00       	nop
			delay();
			PORTD = 0x41;
     280:	8b b9       	out	0x0b, r24	; 11
     282:	3a ea       	ldi	r19, 0xAA	; 170
     284:	46 ee       	ldi	r20, 0xE6	; 230
     286:	56 e9       	ldi	r21, 0x96	; 150
     288:	91 e0       	ldi	r25, 0x01	; 1
     28a:	31 50       	subi	r19, 0x01	; 1
     28c:	40 40       	sbci	r20, 0x00	; 0
     28e:	50 40       	sbci	r21, 0x00	; 0
     290:	90 40       	sbci	r25, 0x00	; 0
     292:	d9 f7       	brne	.-10     	; 0x28a <displayCharacter+0x14c>
     294:	00 00       	nop
			delay();
			PORTD = 0x41;
     296:	8b b9       	out	0x0b, r24	; 11
     298:	2a ea       	ldi	r18, 0xAA	; 170
     29a:	36 ee       	ldi	r19, 0xE6	; 230
     29c:	46 e9       	ldi	r20, 0x96	; 150
     29e:	51 e0       	ldi	r21, 0x01	; 1
     2a0:	21 50       	subi	r18, 0x01	; 1
     2a2:	30 40       	sbci	r19, 0x00	; 0
     2a4:	40 40       	sbci	r20, 0x00	; 0
     2a6:	50 40       	sbci	r21, 0x00	; 0
     2a8:	d9 f7       	brne	.-10     	; 0x2a0 <displayCharacter+0x162>
     2aa:	00 00       	nop
			delay();
			PORTD = 0x22;
     2ac:	82 e2       	ldi	r24, 0x22	; 34
     2ae:	8b b9       	out	0x0b, r24	; 11
     2b0:	8a ea       	ldi	r24, 0xAA	; 170
     2b2:	96 ee       	ldi	r25, 0xE6	; 230
     2b4:	26 e9       	ldi	r18, 0x96	; 150
     2b6:	31 e0       	ldi	r19, 0x01	; 1
     2b8:	81 50       	subi	r24, 0x01	; 1
     2ba:	90 40       	sbci	r25, 0x00	; 0
     2bc:	20 40       	sbci	r18, 0x00	; 0
     2be:	30 40       	sbci	r19, 0x00	; 0
     2c0:	d9 f7       	brne	.-10     	; 0x2b8 <displayCharacter+0x17a>
     2c2:	00 00       	nop
     2c4:	0c 94 bb 09 	jmp	0x1376	; 0x1376 <__stack+0xa77>
			delay();
			break;
		case 'D':
			//7F 41 41 41 3D
			PORTD = 0x7F;
     2c8:	8f e7       	ldi	r24, 0x7F	; 127
     2ca:	8b b9       	out	0x0b, r24	; 11
     2cc:	4a ea       	ldi	r20, 0xAA	; 170
     2ce:	56 ee       	ldi	r21, 0xE6	; 230
     2d0:	86 e9       	ldi	r24, 0x96	; 150
     2d2:	91 e0       	ldi	r25, 0x01	; 1
     2d4:	41 50       	subi	r20, 0x01	; 1
     2d6:	50 40       	sbci	r21, 0x00	; 0
     2d8:	80 40       	sbci	r24, 0x00	; 0
     2da:	90 40       	sbci	r25, 0x00	; 0
     2dc:	d9 f7       	brne	.-10     	; 0x2d4 <displayCharacter+0x196>
     2de:	00 00       	nop
			delay();
			PORTD = 0x41;
     2e0:	81 e4       	ldi	r24, 0x41	; 65
     2e2:	8b b9       	out	0x0b, r24	; 11
     2e4:	2a ea       	ldi	r18, 0xAA	; 170
     2e6:	36 ee       	ldi	r19, 0xE6	; 230
     2e8:	46 e9       	ldi	r20, 0x96	; 150
     2ea:	51 e0       	ldi	r21, 0x01	; 1
     2ec:	21 50       	subi	r18, 0x01	; 1
     2ee:	30 40       	sbci	r19, 0x00	; 0
     2f0:	40 40       	sbci	r20, 0x00	; 0
     2f2:	50 40       	sbci	r21, 0x00	; 0
     2f4:	d9 f7       	brne	.-10     	; 0x2ec <displayCharacter+0x1ae>
     2f6:	00 00       	nop
			delay();
			PORTD = 0x41;
     2f8:	8b b9       	out	0x0b, r24	; 11
     2fa:	9a ea       	ldi	r25, 0xAA	; 170
     2fc:	26 ee       	ldi	r18, 0xE6	; 230
     2fe:	36 e9       	ldi	r19, 0x96	; 150
     300:	41 e0       	ldi	r20, 0x01	; 1
     302:	91 50       	subi	r25, 0x01	; 1
     304:	20 40       	sbci	r18, 0x00	; 0
     306:	30 40       	sbci	r19, 0x00	; 0
     308:	40 40       	sbci	r20, 0x00	; 0
     30a:	d9 f7       	brne	.-10     	; 0x302 <displayCharacter+0x1c4>
     30c:	00 00       	nop
			delay();
			PORTD = 0x41;
     30e:	8b b9       	out	0x0b, r24	; 11
     310:	5a ea       	ldi	r21, 0xAA	; 170
     312:	86 ee       	ldi	r24, 0xE6	; 230
     314:	96 e9       	ldi	r25, 0x96	; 150
     316:	21 e0       	ldi	r18, 0x01	; 1
     318:	51 50       	subi	r21, 0x01	; 1
     31a:	80 40       	sbci	r24, 0x00	; 0
     31c:	90 40       	sbci	r25, 0x00	; 0
     31e:	20 40       	sbci	r18, 0x00	; 0
     320:	d9 f7       	brne	.-10     	; 0x318 <displayCharacter+0x1da>
     322:	00 00       	nop
			delay();
			PORTD = 0x3D;
     324:	8d e3       	ldi	r24, 0x3D	; 61
     326:	8b b9       	out	0x0b, r24	; 11
     328:	3a ea       	ldi	r19, 0xAA	; 170
     32a:	46 ee       	ldi	r20, 0xE6	; 230
     32c:	56 e9       	ldi	r21, 0x96	; 150
     32e:	81 e0       	ldi	r24, 0x01	; 1
     330:	31 50       	subi	r19, 0x01	; 1
     332:	40 40       	sbci	r20, 0x00	; 0
     334:	50 40       	sbci	r21, 0x00	; 0
     336:	80 40       	sbci	r24, 0x00	; 0
     338:	d9 f7       	brne	.-10     	; 0x330 <displayCharacter+0x1f2>
     33a:	00 00       	nop
     33c:	0c 94 bb 09 	jmp	0x1376	; 0x1376 <__stack+0xa77>
			delay();
			break;
		case 'E':
			//7F 49 49 49 49
			PORTD = 0x7F;
     340:	8f e7       	ldi	r24, 0x7F	; 127
     342:	8b b9       	out	0x0b, r24	; 11
     344:	9a ea       	ldi	r25, 0xAA	; 170
     346:	26 ee       	ldi	r18, 0xE6	; 230
     348:	36 e9       	ldi	r19, 0x96	; 150
     34a:	41 e0       	ldi	r20, 0x01	; 1
     34c:	91 50       	subi	r25, 0x01	; 1
     34e:	20 40       	sbci	r18, 0x00	; 0
     350:	30 40       	sbci	r19, 0x00	; 0
     352:	40 40       	sbci	r20, 0x00	; 0
     354:	d9 f7       	brne	.-10     	; 0x34c <displayCharacter+0x20e>
     356:	00 00       	nop
			delay();
			PORTD = 0x49;
     358:	89 e4       	ldi	r24, 0x49	; 73
     35a:	8b b9       	out	0x0b, r24	; 11
     35c:	5a ea       	ldi	r21, 0xAA	; 170
     35e:	96 ee       	ldi	r25, 0xE6	; 230
     360:	26 e9       	ldi	r18, 0x96	; 150
     362:	31 e0       	ldi	r19, 0x01	; 1
     364:	51 50       	subi	r21, 0x01	; 1
     366:	90 40       	sbci	r25, 0x00	; 0
     368:	20 40       	sbci	r18, 0x00	; 0
     36a:	30 40       	sbci	r19, 0x00	; 0
     36c:	d9 f7       	brne	.-10     	; 0x364 <displayCharacter+0x226>
     36e:	00 00       	nop
			delay();
			PORTD = 0x49;
     370:	8b b9       	out	0x0b, r24	; 11
     372:	4a ea       	ldi	r20, 0xAA	; 170
     374:	56 ee       	ldi	r21, 0xE6	; 230
     376:	96 e9       	ldi	r25, 0x96	; 150
     378:	21 e0       	ldi	r18, 0x01	; 1
     37a:	41 50       	subi	r20, 0x01	; 1
     37c:	50 40       	sbci	r21, 0x00	; 0
     37e:	90 40       	sbci	r25, 0x00	; 0
     380:	20 40       	sbci	r18, 0x00	; 0
     382:	d9 f7       	brne	.-10     	; 0x37a <displayCharacter+0x23c>
     384:	00 00       	nop
			delay();
			PORTD = 0x49;
     386:	8b b9       	out	0x0b, r24	; 11
     388:	3a ea       	ldi	r19, 0xAA	; 170
     38a:	46 ee       	ldi	r20, 0xE6	; 230
     38c:	56 e9       	ldi	r21, 0x96	; 150
     38e:	91 e0       	ldi	r25, 0x01	; 1
     390:	31 50       	subi	r19, 0x01	; 1
     392:	40 40       	sbci	r20, 0x00	; 0
     394:	50 40       	sbci	r21, 0x00	; 0
     396:	90 40       	sbci	r25, 0x00	; 0
     398:	d9 f7       	brne	.-10     	; 0x390 <displayCharacter+0x252>
     39a:	00 00       	nop
			delay();
			PORTD = 0x49;
     39c:	8b b9       	out	0x0b, r24	; 11
     39e:	2a ea       	ldi	r18, 0xAA	; 170
     3a0:	36 ee       	ldi	r19, 0xE6	; 230
     3a2:	46 e9       	ldi	r20, 0x96	; 150
     3a4:	51 e0       	ldi	r21, 0x01	; 1
     3a6:	21 50       	subi	r18, 0x01	; 1
     3a8:	30 40       	sbci	r19, 0x00	; 0
     3aa:	40 40       	sbci	r20, 0x00	; 0
     3ac:	50 40       	sbci	r21, 0x00	; 0
     3ae:	d9 f7       	brne	.-10     	; 0x3a6 <displayCharacter+0x268>
     3b0:	00 00       	nop
     3b2:	e1 c7       	rjmp	.+4034   	; 0x1376 <__stack+0xa77>
			delay();
			break;
		case 'F':
			//7F 48 48 48 48
			PORTD = 0x7F;
     3b4:	8f e7       	ldi	r24, 0x7F	; 127
     3b6:	8b b9       	out	0x0b, r24	; 11
     3b8:	8a ea       	ldi	r24, 0xAA	; 170
     3ba:	96 ee       	ldi	r25, 0xE6	; 230
     3bc:	26 e9       	ldi	r18, 0x96	; 150
     3be:	31 e0       	ldi	r19, 0x01	; 1
     3c0:	81 50       	subi	r24, 0x01	; 1
     3c2:	90 40       	sbci	r25, 0x00	; 0
     3c4:	20 40       	sbci	r18, 0x00	; 0
     3c6:	30 40       	sbci	r19, 0x00	; 0
     3c8:	d9 f7       	brne	.-10     	; 0x3c0 <displayCharacter+0x282>
     3ca:	00 00       	nop
			delay();
			PORTD = 0x48;
     3cc:	88 e4       	ldi	r24, 0x48	; 72
     3ce:	8b b9       	out	0x0b, r24	; 11
     3d0:	4a ea       	ldi	r20, 0xAA	; 170
     3d2:	56 ee       	ldi	r21, 0xE6	; 230
     3d4:	96 e9       	ldi	r25, 0x96	; 150
     3d6:	21 e0       	ldi	r18, 0x01	; 1
     3d8:	41 50       	subi	r20, 0x01	; 1
     3da:	50 40       	sbci	r21, 0x00	; 0
     3dc:	90 40       	sbci	r25, 0x00	; 0
     3de:	20 40       	sbci	r18, 0x00	; 0
     3e0:	d9 f7       	brne	.-10     	; 0x3d8 <displayCharacter+0x29a>
     3e2:	00 00       	nop
			delay();
			PORTD = 0x48;
     3e4:	8b b9       	out	0x0b, r24	; 11
     3e6:	3a ea       	ldi	r19, 0xAA	; 170
     3e8:	46 ee       	ldi	r20, 0xE6	; 230
     3ea:	56 e9       	ldi	r21, 0x96	; 150
     3ec:	91 e0       	ldi	r25, 0x01	; 1
     3ee:	31 50       	subi	r19, 0x01	; 1
     3f0:	40 40       	sbci	r20, 0x00	; 0
     3f2:	50 40       	sbci	r21, 0x00	; 0
     3f4:	90 40       	sbci	r25, 0x00	; 0
     3f6:	d9 f7       	brne	.-10     	; 0x3ee <displayCharacter+0x2b0>
     3f8:	00 00       	nop
			delay();
			PORTD = 0x48;
     3fa:	8b b9       	out	0x0b, r24	; 11
     3fc:	2a ea       	ldi	r18, 0xAA	; 170
     3fe:	36 ee       	ldi	r19, 0xE6	; 230
     400:	46 e9       	ldi	r20, 0x96	; 150
     402:	51 e0       	ldi	r21, 0x01	; 1
     404:	21 50       	subi	r18, 0x01	; 1
     406:	30 40       	sbci	r19, 0x00	; 0
     408:	40 40       	sbci	r20, 0x00	; 0
     40a:	50 40       	sbci	r21, 0x00	; 0
     40c:	d9 f7       	brne	.-10     	; 0x404 <__LOCK_REGION_LENGTH__+0x4>
     40e:	00 00       	nop
			delay();
			PORTD = 0x48;
     410:	8b b9       	out	0x0b, r24	; 11
     412:	8a ea       	ldi	r24, 0xAA	; 170
     414:	96 ee       	ldi	r25, 0xE6	; 230
     416:	26 e9       	ldi	r18, 0x96	; 150
     418:	31 e0       	ldi	r19, 0x01	; 1
     41a:	81 50       	subi	r24, 0x01	; 1
     41c:	90 40       	sbci	r25, 0x00	; 0
     41e:	20 40       	sbci	r18, 0x00	; 0
     420:	30 40       	sbci	r19, 0x00	; 0
     422:	d9 f7       	brne	.-10     	; 0x41a <__LOCK_REGION_LENGTH__+0x1a>
     424:	00 00       	nop
     426:	a7 c7       	rjmp	.+3918   	; 0x1376 <__stack+0xa77>
			delay();
			break;
		case 'G':
			//3D 41 49 49 2D
			PORTD = 0x3D;
     428:	8d e3       	ldi	r24, 0x3D	; 61
     42a:	8b b9       	out	0x0b, r24	; 11
     42c:	4a ea       	ldi	r20, 0xAA	; 170
     42e:	56 ee       	ldi	r21, 0xE6	; 230
     430:	86 e9       	ldi	r24, 0x96	; 150
     432:	91 e0       	ldi	r25, 0x01	; 1
     434:	41 50       	subi	r20, 0x01	; 1
     436:	50 40       	sbci	r21, 0x00	; 0
     438:	80 40       	sbci	r24, 0x00	; 0
     43a:	90 40       	sbci	r25, 0x00	; 0
     43c:	d9 f7       	brne	.-10     	; 0x434 <__LOCK_REGION_LENGTH__+0x34>
     43e:	00 00       	nop
			delay();
			PORTD = 0x41;
     440:	81 e4       	ldi	r24, 0x41	; 65
     442:	8b b9       	out	0x0b, r24	; 11
     444:	2a ea       	ldi	r18, 0xAA	; 170
     446:	36 ee       	ldi	r19, 0xE6	; 230
     448:	46 e9       	ldi	r20, 0x96	; 150
     44a:	51 e0       	ldi	r21, 0x01	; 1
     44c:	21 50       	subi	r18, 0x01	; 1
     44e:	30 40       	sbci	r19, 0x00	; 0
     450:	40 40       	sbci	r20, 0x00	; 0
     452:	50 40       	sbci	r21, 0x00	; 0
     454:	d9 f7       	brne	.-10     	; 0x44c <__LOCK_REGION_LENGTH__+0x4c>
     456:	00 00       	nop
			delay();
			PORTD = 0x49;
     458:	89 e4       	ldi	r24, 0x49	; 73
     45a:	8b b9       	out	0x0b, r24	; 11
     45c:	9a ea       	ldi	r25, 0xAA	; 170
     45e:	26 ee       	ldi	r18, 0xE6	; 230
     460:	36 e9       	ldi	r19, 0x96	; 150
     462:	41 e0       	ldi	r20, 0x01	; 1
     464:	91 50       	subi	r25, 0x01	; 1
     466:	20 40       	sbci	r18, 0x00	; 0
     468:	30 40       	sbci	r19, 0x00	; 0
     46a:	40 40       	sbci	r20, 0x00	; 0
     46c:	d9 f7       	brne	.-10     	; 0x464 <__LOCK_REGION_LENGTH__+0x64>
     46e:	00 00       	nop
			delay();
			PORTD = 0x49;
     470:	8b b9       	out	0x0b, r24	; 11
     472:	5a ea       	ldi	r21, 0xAA	; 170
     474:	86 ee       	ldi	r24, 0xE6	; 230
     476:	96 e9       	ldi	r25, 0x96	; 150
     478:	21 e0       	ldi	r18, 0x01	; 1
     47a:	51 50       	subi	r21, 0x01	; 1
     47c:	80 40       	sbci	r24, 0x00	; 0
     47e:	90 40       	sbci	r25, 0x00	; 0
     480:	20 40       	sbci	r18, 0x00	; 0
     482:	d9 f7       	brne	.-10     	; 0x47a <__LOCK_REGION_LENGTH__+0x7a>
     484:	00 00       	nop
			delay();
			PORTD = 0x2D;
     486:	8d e2       	ldi	r24, 0x2D	; 45
     488:	8b b9       	out	0x0b, r24	; 11
     48a:	3a ea       	ldi	r19, 0xAA	; 170
     48c:	46 ee       	ldi	r20, 0xE6	; 230
     48e:	56 e9       	ldi	r21, 0x96	; 150
     490:	81 e0       	ldi	r24, 0x01	; 1
     492:	31 50       	subi	r19, 0x01	; 1
     494:	40 40       	sbci	r20, 0x00	; 0
     496:	50 40       	sbci	r21, 0x00	; 0
     498:	80 40       	sbci	r24, 0x00	; 0
     49a:	d9 f7       	brne	.-10     	; 0x492 <__LOCK_REGION_LENGTH__+0x92>
     49c:	00 00       	nop
     49e:	6b c7       	rjmp	.+3798   	; 0x1376 <__stack+0xa77>
			delay();
			break;
		case 'H':
			//7F 08 08 08 7F
			PORTD = 0x7F;
     4a0:	9f e7       	ldi	r25, 0x7F	; 127
     4a2:	9b b9       	out	0x0b, r25	; 11
     4a4:	2a ea       	ldi	r18, 0xAA	; 170
     4a6:	36 ee       	ldi	r19, 0xE6	; 230
     4a8:	46 e9       	ldi	r20, 0x96	; 150
     4aa:	51 e0       	ldi	r21, 0x01	; 1
     4ac:	21 50       	subi	r18, 0x01	; 1
     4ae:	30 40       	sbci	r19, 0x00	; 0
     4b0:	40 40       	sbci	r20, 0x00	; 0
     4b2:	50 40       	sbci	r21, 0x00	; 0
     4b4:	d9 f7       	brne	.-10     	; 0x4ac <__LOCK_REGION_LENGTH__+0xac>
     4b6:	00 00       	nop
			delay();
			PORTD = 0x08;
     4b8:	88 e0       	ldi	r24, 0x08	; 8
     4ba:	8b b9       	out	0x0b, r24	; 11
     4bc:	2a ea       	ldi	r18, 0xAA	; 170
     4be:	36 ee       	ldi	r19, 0xE6	; 230
     4c0:	46 e9       	ldi	r20, 0x96	; 150
     4c2:	51 e0       	ldi	r21, 0x01	; 1
     4c4:	21 50       	subi	r18, 0x01	; 1
     4c6:	30 40       	sbci	r19, 0x00	; 0
     4c8:	40 40       	sbci	r20, 0x00	; 0
     4ca:	50 40       	sbci	r21, 0x00	; 0
     4cc:	d9 f7       	brne	.-10     	; 0x4c4 <__LOCK_REGION_LENGTH__+0xc4>
     4ce:	00 00       	nop
			delay();
			PORTD = 0x08;
     4d0:	8b b9       	out	0x0b, r24	; 11
     4d2:	2a ea       	ldi	r18, 0xAA	; 170
     4d4:	36 ee       	ldi	r19, 0xE6	; 230
     4d6:	46 e9       	ldi	r20, 0x96	; 150
     4d8:	51 e0       	ldi	r21, 0x01	; 1
     4da:	21 50       	subi	r18, 0x01	; 1
     4dc:	30 40       	sbci	r19, 0x00	; 0
     4de:	40 40       	sbci	r20, 0x00	; 0
     4e0:	50 40       	sbci	r21, 0x00	; 0
     4e2:	d9 f7       	brne	.-10     	; 0x4da <__LOCK_REGION_LENGTH__+0xda>
     4e4:	00 00       	nop
			delay();
			PORTD = 0x08;
     4e6:	8b b9       	out	0x0b, r24	; 11
     4e8:	8a ea       	ldi	r24, 0xAA	; 170
     4ea:	26 ee       	ldi	r18, 0xE6	; 230
     4ec:	36 e9       	ldi	r19, 0x96	; 150
     4ee:	41 e0       	ldi	r20, 0x01	; 1
     4f0:	81 50       	subi	r24, 0x01	; 1
     4f2:	20 40       	sbci	r18, 0x00	; 0
     4f4:	30 40       	sbci	r19, 0x00	; 0
     4f6:	40 40       	sbci	r20, 0x00	; 0
     4f8:	d9 f7       	brne	.-10     	; 0x4f0 <__LOCK_REGION_LENGTH__+0xf0>
     4fa:	00 00       	nop
			delay();
			PORTD = 0x7F;
     4fc:	9b b9       	out	0x0b, r25	; 11
     4fe:	5a ea       	ldi	r21, 0xAA	; 170
     500:	86 ee       	ldi	r24, 0xE6	; 230
     502:	96 e9       	ldi	r25, 0x96	; 150
     504:	21 e0       	ldi	r18, 0x01	; 1
     506:	51 50       	subi	r21, 0x01	; 1
     508:	80 40       	sbci	r24, 0x00	; 0
     50a:	90 40       	sbci	r25, 0x00	; 0
     50c:	20 40       	sbci	r18, 0x00	; 0
     50e:	d9 f7       	brne	.-10     	; 0x506 <__LOCK_REGION_LENGTH__+0x106>
     510:	00 00       	nop
     512:	31 c7       	rjmp	.+3682   	; 0x1376 <__stack+0xa77>
			delay();
			break;
		case 'I':
			//41 41 7F 41 41
			PORTD = 0x41;
     514:	81 e4       	ldi	r24, 0x41	; 65
     516:	8b b9       	out	0x0b, r24	; 11
     518:	3a ea       	ldi	r19, 0xAA	; 170
     51a:	46 ee       	ldi	r20, 0xE6	; 230
     51c:	56 e9       	ldi	r21, 0x96	; 150
     51e:	91 e0       	ldi	r25, 0x01	; 1
     520:	31 50       	subi	r19, 0x01	; 1
     522:	40 40       	sbci	r20, 0x00	; 0
     524:	50 40       	sbci	r21, 0x00	; 0
     526:	90 40       	sbci	r25, 0x00	; 0
     528:	d9 f7       	brne	.-10     	; 0x520 <__LOCK_REGION_LENGTH__+0x120>
     52a:	00 00       	nop
			delay();
			PORTD = 0x41;
     52c:	8b b9       	out	0x0b, r24	; 11
     52e:	2a ea       	ldi	r18, 0xAA	; 170
     530:	36 ee       	ldi	r19, 0xE6	; 230
     532:	46 e9       	ldi	r20, 0x96	; 150
     534:	51 e0       	ldi	r21, 0x01	; 1
     536:	21 50       	subi	r18, 0x01	; 1
     538:	30 40       	sbci	r19, 0x00	; 0
     53a:	40 40       	sbci	r20, 0x00	; 0
     53c:	50 40       	sbci	r21, 0x00	; 0
     53e:	d9 f7       	brne	.-10     	; 0x536 <__LOCK_REGION_LENGTH__+0x136>
     540:	00 00       	nop
			delay();
			PORTD = 0x7F;
     542:	9f e7       	ldi	r25, 0x7F	; 127
     544:	9b b9       	out	0x0b, r25	; 11
     546:	9a ea       	ldi	r25, 0xAA	; 170
     548:	26 ee       	ldi	r18, 0xE6	; 230
     54a:	36 e9       	ldi	r19, 0x96	; 150
     54c:	41 e0       	ldi	r20, 0x01	; 1
     54e:	91 50       	subi	r25, 0x01	; 1
     550:	20 40       	sbci	r18, 0x00	; 0
     552:	30 40       	sbci	r19, 0x00	; 0
     554:	40 40       	sbci	r20, 0x00	; 0
     556:	d9 f7       	brne	.-10     	; 0x54e <__LOCK_REGION_LENGTH__+0x14e>
     558:	00 00       	nop
			delay();
			PORTD = 0x41;
     55a:	8b b9       	out	0x0b, r24	; 11
     55c:	5a ea       	ldi	r21, 0xAA	; 170
     55e:	96 ee       	ldi	r25, 0xE6	; 230
     560:	26 e9       	ldi	r18, 0x96	; 150
     562:	31 e0       	ldi	r19, 0x01	; 1
     564:	51 50       	subi	r21, 0x01	; 1
     566:	90 40       	sbci	r25, 0x00	; 0
     568:	20 40       	sbci	r18, 0x00	; 0
     56a:	30 40       	sbci	r19, 0x00	; 0
     56c:	d9 f7       	brne	.-10     	; 0x564 <__LOCK_REGION_LENGTH__+0x164>
     56e:	00 00       	nop
			delay();
			PORTD = 0x41;
     570:	8b b9       	out	0x0b, r24	; 11
     572:	4a ea       	ldi	r20, 0xAA	; 170
     574:	56 ee       	ldi	r21, 0xE6	; 230
     576:	86 e9       	ldi	r24, 0x96	; 150
     578:	91 e0       	ldi	r25, 0x01	; 1
     57a:	41 50       	subi	r20, 0x01	; 1
     57c:	50 40       	sbci	r21, 0x00	; 0
     57e:	80 40       	sbci	r24, 0x00	; 0
     580:	90 40       	sbci	r25, 0x00	; 0
     582:	d9 f7       	brne	.-10     	; 0x57a <__LOCK_REGION_LENGTH__+0x17a>
     584:	00 00       	nop
     586:	f7 c6       	rjmp	.+3566   	; 0x1376 <__stack+0xa77>
			delay();
			break;
		case 'J':
			//02 01 01 01 7D
			PORTD = 0x02;
     588:	82 e0       	ldi	r24, 0x02	; 2
     58a:	8b b9       	out	0x0b, r24	; 11
     58c:	2a ea       	ldi	r18, 0xAA	; 170
     58e:	36 ee       	ldi	r19, 0xE6	; 230
     590:	46 e9       	ldi	r20, 0x96	; 150
     592:	51 e0       	ldi	r21, 0x01	; 1
     594:	21 50       	subi	r18, 0x01	; 1
     596:	30 40       	sbci	r19, 0x00	; 0
     598:	40 40       	sbci	r20, 0x00	; 0
     59a:	50 40       	sbci	r21, 0x00	; 0
     59c:	d9 f7       	brne	.-10     	; 0x594 <__LOCK_REGION_LENGTH__+0x194>
     59e:	00 00       	nop
			delay();
			PORTD = 0x01;
     5a0:	81 e0       	ldi	r24, 0x01	; 1
     5a2:	8b b9       	out	0x0b, r24	; 11
     5a4:	9a ea       	ldi	r25, 0xAA	; 170
     5a6:	26 ee       	ldi	r18, 0xE6	; 230
     5a8:	36 e9       	ldi	r19, 0x96	; 150
     5aa:	41 e0       	ldi	r20, 0x01	; 1
     5ac:	91 50       	subi	r25, 0x01	; 1
     5ae:	20 40       	sbci	r18, 0x00	; 0
     5b0:	30 40       	sbci	r19, 0x00	; 0
     5b2:	40 40       	sbci	r20, 0x00	; 0
     5b4:	d9 f7       	brne	.-10     	; 0x5ac <__LOCK_REGION_LENGTH__+0x1ac>
     5b6:	00 00       	nop
			delay();
			PORTD = 0x01;
     5b8:	8b b9       	out	0x0b, r24	; 11
     5ba:	5a ea       	ldi	r21, 0xAA	; 170
     5bc:	96 ee       	ldi	r25, 0xE6	; 230
     5be:	26 e9       	ldi	r18, 0x96	; 150
     5c0:	31 e0       	ldi	r19, 0x01	; 1
     5c2:	51 50       	subi	r21, 0x01	; 1
     5c4:	90 40       	sbci	r25, 0x00	; 0
     5c6:	20 40       	sbci	r18, 0x00	; 0
     5c8:	30 40       	sbci	r19, 0x00	; 0
     5ca:	d9 f7       	brne	.-10     	; 0x5c2 <__LOCK_REGION_LENGTH__+0x1c2>
     5cc:	00 00       	nop
			delay();
			PORTD = 0x01;
     5ce:	8b b9       	out	0x0b, r24	; 11
     5d0:	4a ea       	ldi	r20, 0xAA	; 170
     5d2:	56 ee       	ldi	r21, 0xE6	; 230
     5d4:	86 e9       	ldi	r24, 0x96	; 150
     5d6:	91 e0       	ldi	r25, 0x01	; 1
     5d8:	41 50       	subi	r20, 0x01	; 1
     5da:	50 40       	sbci	r21, 0x00	; 0
     5dc:	80 40       	sbci	r24, 0x00	; 0
     5de:	90 40       	sbci	r25, 0x00	; 0
     5e0:	d9 f7       	brne	.-10     	; 0x5d8 <__LOCK_REGION_LENGTH__+0x1d8>
     5e2:	00 00       	nop
			delay();
			PORTD = 0x7D;
     5e4:	8d e7       	ldi	r24, 0x7D	; 125
     5e6:	8b b9       	out	0x0b, r24	; 11
     5e8:	2a ea       	ldi	r18, 0xAA	; 170
     5ea:	36 ee       	ldi	r19, 0xE6	; 230
     5ec:	46 e9       	ldi	r20, 0x96	; 150
     5ee:	51 e0       	ldi	r21, 0x01	; 1
     5f0:	21 50       	subi	r18, 0x01	; 1
     5f2:	30 40       	sbci	r19, 0x00	; 0
     5f4:	40 40       	sbci	r20, 0x00	; 0
     5f6:	50 40       	sbci	r21, 0x00	; 0
     5f8:	d9 f7       	brne	.-10     	; 0x5f0 <__LOCK_REGION_LENGTH__+0x1f0>
     5fa:	00 00       	nop
     5fc:	bc c6       	rjmp	.+3448   	; 0x1376 <__stack+0xa77>
			delay();
			break;
		case 'K':
			//7F 08 14 22 41
			PORTD = 0x7F;
     5fe:	8f e7       	ldi	r24, 0x7F	; 127
     600:	8b b9       	out	0x0b, r24	; 11
     602:	8a ea       	ldi	r24, 0xAA	; 170
     604:	96 ee       	ldi	r25, 0xE6	; 230
     606:	26 e9       	ldi	r18, 0x96	; 150
     608:	31 e0       	ldi	r19, 0x01	; 1
     60a:	81 50       	subi	r24, 0x01	; 1
     60c:	90 40       	sbci	r25, 0x00	; 0
     60e:	20 40       	sbci	r18, 0x00	; 0
     610:	30 40       	sbci	r19, 0x00	; 0
     612:	d9 f7       	brne	.-10     	; 0x60a <__LOCK_REGION_LENGTH__+0x20a>
     614:	00 00       	nop
			delay();
			PORTD = 0x08;
     616:	88 e0       	ldi	r24, 0x08	; 8
     618:	8b b9       	out	0x0b, r24	; 11
     61a:	4a ea       	ldi	r20, 0xAA	; 170
     61c:	56 ee       	ldi	r21, 0xE6	; 230
     61e:	86 e9       	ldi	r24, 0x96	; 150
     620:	91 e0       	ldi	r25, 0x01	; 1
     622:	41 50       	subi	r20, 0x01	; 1
     624:	50 40       	sbci	r21, 0x00	; 0
     626:	80 40       	sbci	r24, 0x00	; 0
     628:	90 40       	sbci	r25, 0x00	; 0
     62a:	d9 f7       	brne	.-10     	; 0x622 <__LOCK_REGION_LENGTH__+0x222>
     62c:	00 00       	nop
			delay();
			PORTD = 0x14;
     62e:	84 e1       	ldi	r24, 0x14	; 20
     630:	8b b9       	out	0x0b, r24	; 11
     632:	2a ea       	ldi	r18, 0xAA	; 170
     634:	36 ee       	ldi	r19, 0xE6	; 230
     636:	46 e9       	ldi	r20, 0x96	; 150
     638:	51 e0       	ldi	r21, 0x01	; 1
     63a:	21 50       	subi	r18, 0x01	; 1
     63c:	30 40       	sbci	r19, 0x00	; 0
     63e:	40 40       	sbci	r20, 0x00	; 0
     640:	50 40       	sbci	r21, 0x00	; 0
     642:	d9 f7       	brne	.-10     	; 0x63a <__LOCK_REGION_LENGTH__+0x23a>
     644:	00 00       	nop
			delay();
			PORTD = 0x22;
     646:	82 e2       	ldi	r24, 0x22	; 34
     648:	8b b9       	out	0x0b, r24	; 11
     64a:	8a ea       	ldi	r24, 0xAA	; 170
     64c:	96 ee       	ldi	r25, 0xE6	; 230
     64e:	26 e9       	ldi	r18, 0x96	; 150
     650:	31 e0       	ldi	r19, 0x01	; 1
     652:	81 50       	subi	r24, 0x01	; 1
     654:	90 40       	sbci	r25, 0x00	; 0
     656:	20 40       	sbci	r18, 0x00	; 0
     658:	30 40       	sbci	r19, 0x00	; 0
     65a:	d9 f7       	brne	.-10     	; 0x652 <__LOCK_REGION_LENGTH__+0x252>
     65c:	00 00       	nop
			delay();
			PORTD = 0x41;
     65e:	81 e4       	ldi	r24, 0x41	; 65
     660:	8b b9       	out	0x0b, r24	; 11
     662:	4a ea       	ldi	r20, 0xAA	; 170
     664:	56 ee       	ldi	r21, 0xE6	; 230
     666:	86 e9       	ldi	r24, 0x96	; 150
     668:	91 e0       	ldi	r25, 0x01	; 1
     66a:	41 50       	subi	r20, 0x01	; 1
     66c:	50 40       	sbci	r21, 0x00	; 0
     66e:	80 40       	sbci	r24, 0x00	; 0
     670:	90 40       	sbci	r25, 0x00	; 0
     672:	d9 f7       	brne	.-10     	; 0x66a <__LOCK_REGION_LENGTH__+0x26a>
     674:	00 00       	nop
     676:	7f c6       	rjmp	.+3326   	; 0x1376 <__stack+0xa77>
			delay();
			break;
		case 'L':
			//7F 01 01 01 01
			PORTD = 0x7F;
     678:	8f e7       	ldi	r24, 0x7F	; 127
     67a:	8b b9       	out	0x0b, r24	; 11
     67c:	2a ea       	ldi	r18, 0xAA	; 170
     67e:	36 ee       	ldi	r19, 0xE6	; 230
     680:	46 e9       	ldi	r20, 0x96	; 150
     682:	51 e0       	ldi	r21, 0x01	; 1
     684:	21 50       	subi	r18, 0x01	; 1
     686:	30 40       	sbci	r19, 0x00	; 0
     688:	40 40       	sbci	r20, 0x00	; 0
     68a:	50 40       	sbci	r21, 0x00	; 0
     68c:	d9 f7       	brne	.-10     	; 0x684 <__LOCK_REGION_LENGTH__+0x284>
     68e:	00 00       	nop
			delay();
			PORTD = 0x01;
     690:	81 e0       	ldi	r24, 0x01	; 1
     692:	8b b9       	out	0x0b, r24	; 11
     694:	9a ea       	ldi	r25, 0xAA	; 170
     696:	26 ee       	ldi	r18, 0xE6	; 230
     698:	36 e9       	ldi	r19, 0x96	; 150
     69a:	41 e0       	ldi	r20, 0x01	; 1
     69c:	91 50       	subi	r25, 0x01	; 1
     69e:	20 40       	sbci	r18, 0x00	; 0
     6a0:	30 40       	sbci	r19, 0x00	; 0
     6a2:	40 40       	sbci	r20, 0x00	; 0
     6a4:	d9 f7       	brne	.-10     	; 0x69c <__LOCK_REGION_LENGTH__+0x29c>
     6a6:	00 00       	nop
			delay();
			PORTD = 0x01;
     6a8:	8b b9       	out	0x0b, r24	; 11
     6aa:	5a ea       	ldi	r21, 0xAA	; 170
     6ac:	96 ee       	ldi	r25, 0xE6	; 230
     6ae:	26 e9       	ldi	r18, 0x96	; 150
     6b0:	31 e0       	ldi	r19, 0x01	; 1
     6b2:	51 50       	subi	r21, 0x01	; 1
     6b4:	90 40       	sbci	r25, 0x00	; 0
     6b6:	20 40       	sbci	r18, 0x00	; 0
     6b8:	30 40       	sbci	r19, 0x00	; 0
     6ba:	d9 f7       	brne	.-10     	; 0x6b2 <__LOCK_REGION_LENGTH__+0x2b2>
     6bc:	00 00       	nop
			delay();
			PORTD = 0x01;
     6be:	8b b9       	out	0x0b, r24	; 11
     6c0:	4a ea       	ldi	r20, 0xAA	; 170
     6c2:	56 ee       	ldi	r21, 0xE6	; 230
     6c4:	96 e9       	ldi	r25, 0x96	; 150
     6c6:	21 e0       	ldi	r18, 0x01	; 1
     6c8:	41 50       	subi	r20, 0x01	; 1
     6ca:	50 40       	sbci	r21, 0x00	; 0
     6cc:	90 40       	sbci	r25, 0x00	; 0
     6ce:	20 40       	sbci	r18, 0x00	; 0
     6d0:	d9 f7       	brne	.-10     	; 0x6c8 <__LOCK_REGION_LENGTH__+0x2c8>
     6d2:	00 00       	nop
			delay();
			PORTD = 0x01;
     6d4:	8b b9       	out	0x0b, r24	; 11
     6d6:	3a ea       	ldi	r19, 0xAA	; 170
     6d8:	46 ee       	ldi	r20, 0xE6	; 230
     6da:	56 e9       	ldi	r21, 0x96	; 150
     6dc:	81 e0       	ldi	r24, 0x01	; 1
     6de:	31 50       	subi	r19, 0x01	; 1
     6e0:	40 40       	sbci	r20, 0x00	; 0
     6e2:	50 40       	sbci	r21, 0x00	; 0
     6e4:	80 40       	sbci	r24, 0x00	; 0
     6e6:	d9 f7       	brne	.-10     	; 0x6de <__LOCK_REGION_LENGTH__+0x2de>
     6e8:	00 00       	nop
     6ea:	45 c6       	rjmp	.+3210   	; 0x1376 <__stack+0xa77>
			delay();
			break;
		case 'M':
			//7F 20 18 20 7F
			PORTD = 0x7F;
     6ec:	8f e7       	ldi	r24, 0x7F	; 127
     6ee:	8b b9       	out	0x0b, r24	; 11
     6f0:	9a ea       	ldi	r25, 0xAA	; 170
     6f2:	26 ee       	ldi	r18, 0xE6	; 230
     6f4:	36 e9       	ldi	r19, 0x96	; 150
     6f6:	41 e0       	ldi	r20, 0x01	; 1
     6f8:	91 50       	subi	r25, 0x01	; 1
     6fa:	20 40       	sbci	r18, 0x00	; 0
     6fc:	30 40       	sbci	r19, 0x00	; 0
     6fe:	40 40       	sbci	r20, 0x00	; 0
     700:	d9 f7       	brne	.-10     	; 0x6f8 <__LOCK_REGION_LENGTH__+0x2f8>
     702:	00 00       	nop
			delay();
			PORTD = 0x20;
     704:	90 e2       	ldi	r25, 0x20	; 32
     706:	9b b9       	out	0x0b, r25	; 11
     708:	5a ea       	ldi	r21, 0xAA	; 170
     70a:	26 ee       	ldi	r18, 0xE6	; 230
     70c:	36 e9       	ldi	r19, 0x96	; 150
     70e:	41 e0       	ldi	r20, 0x01	; 1
     710:	51 50       	subi	r21, 0x01	; 1
     712:	20 40       	sbci	r18, 0x00	; 0
     714:	30 40       	sbci	r19, 0x00	; 0
     716:	40 40       	sbci	r20, 0x00	; 0
     718:	d9 f7       	brne	.-10     	; 0x710 <__LOCK_REGION_LENGTH__+0x310>
     71a:	00 00       	nop
			delay();
			PORTD = 0x18;
     71c:	28 e1       	ldi	r18, 0x18	; 24
     71e:	2b b9       	out	0x0b, r18	; 11
     720:	5a ea       	ldi	r21, 0xAA	; 170
     722:	26 ee       	ldi	r18, 0xE6	; 230
     724:	36 e9       	ldi	r19, 0x96	; 150
     726:	41 e0       	ldi	r20, 0x01	; 1
     728:	51 50       	subi	r21, 0x01	; 1
     72a:	20 40       	sbci	r18, 0x00	; 0
     72c:	30 40       	sbci	r19, 0x00	; 0
     72e:	40 40       	sbci	r20, 0x00	; 0
     730:	d9 f7       	brne	.-10     	; 0x728 <__LOCK_REGION_LENGTH__+0x328>
     732:	00 00       	nop
			delay();
			PORTD = 0x20;
     734:	9b b9       	out	0x0b, r25	; 11
     736:	5a ea       	ldi	r21, 0xAA	; 170
     738:	96 ee       	ldi	r25, 0xE6	; 230
     73a:	26 e9       	ldi	r18, 0x96	; 150
     73c:	31 e0       	ldi	r19, 0x01	; 1
     73e:	51 50       	subi	r21, 0x01	; 1
     740:	90 40       	sbci	r25, 0x00	; 0
     742:	20 40       	sbci	r18, 0x00	; 0
     744:	30 40       	sbci	r19, 0x00	; 0
     746:	d9 f7       	brne	.-10     	; 0x73e <__LOCK_REGION_LENGTH__+0x33e>
     748:	00 00       	nop
			delay();
			PORTD = 0x7F;
     74a:	8b b9       	out	0x0b, r24	; 11
     74c:	4a ea       	ldi	r20, 0xAA	; 170
     74e:	56 ee       	ldi	r21, 0xE6	; 230
     750:	86 e9       	ldi	r24, 0x96	; 150
     752:	91 e0       	ldi	r25, 0x01	; 1
     754:	41 50       	subi	r20, 0x01	; 1
     756:	50 40       	sbci	r21, 0x00	; 0
     758:	80 40       	sbci	r24, 0x00	; 0
     75a:	90 40       	sbci	r25, 0x00	; 0
     75c:	d9 f7       	brne	.-10     	; 0x754 <__LOCK_REGION_LENGTH__+0x354>
     75e:	00 00       	nop
     760:	0a c6       	rjmp	.+3092   	; 0x1376 <__stack+0xa77>
			delay();
			break;
		case 'N':
			//7F 10 08 04 7F
			PORTD = 0x7F;
     762:	8f e7       	ldi	r24, 0x7F	; 127
     764:	8b b9       	out	0x0b, r24	; 11
     766:	2a ea       	ldi	r18, 0xAA	; 170
     768:	36 ee       	ldi	r19, 0xE6	; 230
     76a:	46 e9       	ldi	r20, 0x96	; 150
     76c:	51 e0       	ldi	r21, 0x01	; 1
     76e:	21 50       	subi	r18, 0x01	; 1
     770:	30 40       	sbci	r19, 0x00	; 0
     772:	40 40       	sbci	r20, 0x00	; 0
     774:	50 40       	sbci	r21, 0x00	; 0
     776:	d9 f7       	brne	.-10     	; 0x76e <__LOCK_REGION_LENGTH__+0x36e>
     778:	00 00       	nop
			delay();
			PORTD = 0x10;
     77a:	90 e1       	ldi	r25, 0x10	; 16
     77c:	9b b9       	out	0x0b, r25	; 11
     77e:	9a ea       	ldi	r25, 0xAA	; 170
     780:	26 ee       	ldi	r18, 0xE6	; 230
     782:	36 e9       	ldi	r19, 0x96	; 150
     784:	41 e0       	ldi	r20, 0x01	; 1
     786:	91 50       	subi	r25, 0x01	; 1
     788:	20 40       	sbci	r18, 0x00	; 0
     78a:	30 40       	sbci	r19, 0x00	; 0
     78c:	40 40       	sbci	r20, 0x00	; 0
     78e:	d9 f7       	brne	.-10     	; 0x786 <__LOCK_REGION_LENGTH__+0x386>
     790:	00 00       	nop
			delay();
			PORTD = 0x08;
     792:	98 e0       	ldi	r25, 0x08	; 8
     794:	9b b9       	out	0x0b, r25	; 11
     796:	5a ea       	ldi	r21, 0xAA	; 170
     798:	96 ee       	ldi	r25, 0xE6	; 230
     79a:	26 e9       	ldi	r18, 0x96	; 150
     79c:	31 e0       	ldi	r19, 0x01	; 1
     79e:	51 50       	subi	r21, 0x01	; 1
     7a0:	90 40       	sbci	r25, 0x00	; 0
     7a2:	20 40       	sbci	r18, 0x00	; 0
     7a4:	30 40       	sbci	r19, 0x00	; 0
     7a6:	d9 f7       	brne	.-10     	; 0x79e <__LOCK_REGION_LENGTH__+0x39e>
     7a8:	00 00       	nop
			delay();
			PORTD = 0x04;
     7aa:	94 e0       	ldi	r25, 0x04	; 4
     7ac:	9b b9       	out	0x0b, r25	; 11
     7ae:	4a ea       	ldi	r20, 0xAA	; 170
     7b0:	56 ee       	ldi	r21, 0xE6	; 230
     7b2:	96 e9       	ldi	r25, 0x96	; 150
     7b4:	21 e0       	ldi	r18, 0x01	; 1
     7b6:	41 50       	subi	r20, 0x01	; 1
     7b8:	50 40       	sbci	r21, 0x00	; 0
     7ba:	90 40       	sbci	r25, 0x00	; 0
     7bc:	20 40       	sbci	r18, 0x00	; 0
     7be:	d9 f7       	brne	.-10     	; 0x7b6 <__LOCK_REGION_LENGTH__+0x3b6>
     7c0:	00 00       	nop
			delay();
			PORTD = 0x7F;
     7c2:	8b b9       	out	0x0b, r24	; 11
     7c4:	3a ea       	ldi	r19, 0xAA	; 170
     7c6:	46 ee       	ldi	r20, 0xE6	; 230
     7c8:	56 e9       	ldi	r21, 0x96	; 150
     7ca:	81 e0       	ldi	r24, 0x01	; 1
     7cc:	31 50       	subi	r19, 0x01	; 1
     7ce:	40 40       	sbci	r20, 0x00	; 0
     7d0:	50 40       	sbci	r21, 0x00	; 0
     7d2:	80 40       	sbci	r24, 0x00	; 0
     7d4:	d9 f7       	brne	.-10     	; 0x7cc <__LOCK_REGION_LENGTH__+0x3cc>
     7d6:	00 00       	nop
     7d8:	ce c5       	rjmp	.+2972   	; 0x1376 <__stack+0xa77>
			delay();
			break;
		case 'O':
			//3D 41 41 41 3D
			PORTD = 0x3D;
     7da:	9d e3       	ldi	r25, 0x3D	; 61
     7dc:	9b b9       	out	0x0b, r25	; 11
     7de:	2a ea       	ldi	r18, 0xAA	; 170
     7e0:	36 ee       	ldi	r19, 0xE6	; 230
     7e2:	46 e9       	ldi	r20, 0x96	; 150
     7e4:	51 e0       	ldi	r21, 0x01	; 1
     7e6:	21 50       	subi	r18, 0x01	; 1
     7e8:	30 40       	sbci	r19, 0x00	; 0
     7ea:	40 40       	sbci	r20, 0x00	; 0
     7ec:	50 40       	sbci	r21, 0x00	; 0
     7ee:	d9 f7       	brne	.-10     	; 0x7e6 <__LOCK_REGION_LENGTH__+0x3e6>
     7f0:	00 00       	nop
			delay();
			PORTD = 0x41;
     7f2:	81 e4       	ldi	r24, 0x41	; 65
     7f4:	8b b9       	out	0x0b, r24	; 11
     7f6:	2a ea       	ldi	r18, 0xAA	; 170
     7f8:	36 ee       	ldi	r19, 0xE6	; 230
     7fa:	46 e9       	ldi	r20, 0x96	; 150
     7fc:	51 e0       	ldi	r21, 0x01	; 1
     7fe:	21 50       	subi	r18, 0x01	; 1
     800:	30 40       	sbci	r19, 0x00	; 0
     802:	40 40       	sbci	r20, 0x00	; 0
     804:	50 40       	sbci	r21, 0x00	; 0
     806:	d9 f7       	brne	.-10     	; 0x7fe <__LOCK_REGION_LENGTH__+0x3fe>
     808:	00 00       	nop
			delay();
			PORTD = 0x41;
     80a:	8b b9       	out	0x0b, r24	; 11
     80c:	2a ea       	ldi	r18, 0xAA	; 170
     80e:	36 ee       	ldi	r19, 0xE6	; 230
     810:	46 e9       	ldi	r20, 0x96	; 150
     812:	51 e0       	ldi	r21, 0x01	; 1
     814:	21 50       	subi	r18, 0x01	; 1
     816:	30 40       	sbci	r19, 0x00	; 0
     818:	40 40       	sbci	r20, 0x00	; 0
     81a:	50 40       	sbci	r21, 0x00	; 0
     81c:	d9 f7       	brne	.-10     	; 0x814 <__LOCK_REGION_LENGTH__+0x414>
     81e:	00 00       	nop
			delay();
			PORTD = 0x41;
     820:	8b b9       	out	0x0b, r24	; 11
     822:	8a ea       	ldi	r24, 0xAA	; 170
     824:	26 ee       	ldi	r18, 0xE6	; 230
     826:	36 e9       	ldi	r19, 0x96	; 150
     828:	41 e0       	ldi	r20, 0x01	; 1
     82a:	81 50       	subi	r24, 0x01	; 1
     82c:	20 40       	sbci	r18, 0x00	; 0
     82e:	30 40       	sbci	r19, 0x00	; 0
     830:	40 40       	sbci	r20, 0x00	; 0
     832:	d9 f7       	brne	.-10     	; 0x82a <__LOCK_REGION_LENGTH__+0x42a>
     834:	00 00       	nop
			delay();
			PORTD = 0x3D;
     836:	9b b9       	out	0x0b, r25	; 11
     838:	5a ea       	ldi	r21, 0xAA	; 170
     83a:	86 ee       	ldi	r24, 0xE6	; 230
     83c:	96 e9       	ldi	r25, 0x96	; 150
     83e:	21 e0       	ldi	r18, 0x01	; 1
     840:	51 50       	subi	r21, 0x01	; 1
     842:	80 40       	sbci	r24, 0x00	; 0
     844:	90 40       	sbci	r25, 0x00	; 0
     846:	20 40       	sbci	r18, 0x00	; 0
     848:	d9 f7       	brne	.-10     	; 0x840 <__LOCK_REGION_LENGTH__+0x440>
     84a:	00 00       	nop
     84c:	94 c5       	rjmp	.+2856   	; 0x1376 <__stack+0xa77>
			delay();
			break;
		case 'P':
			//7F 48 48 48 30
			PORTD = 0x7F;
     84e:	8f e7       	ldi	r24, 0x7F	; 127
     850:	8b b9       	out	0x0b, r24	; 11
     852:	3a ea       	ldi	r19, 0xAA	; 170
     854:	46 ee       	ldi	r20, 0xE6	; 230
     856:	56 e9       	ldi	r21, 0x96	; 150
     858:	81 e0       	ldi	r24, 0x01	; 1
     85a:	31 50       	subi	r19, 0x01	; 1
     85c:	40 40       	sbci	r20, 0x00	; 0
     85e:	50 40       	sbci	r21, 0x00	; 0
     860:	80 40       	sbci	r24, 0x00	; 0
     862:	d9 f7       	brne	.-10     	; 0x85a <__LOCK_REGION_LENGTH__+0x45a>
     864:	00 00       	nop
			delay();
			PORTD = 0x48;
     866:	88 e4       	ldi	r24, 0x48	; 72
     868:	8b b9       	out	0x0b, r24	; 11
     86a:	9a ea       	ldi	r25, 0xAA	; 170
     86c:	26 ee       	ldi	r18, 0xE6	; 230
     86e:	36 e9       	ldi	r19, 0x96	; 150
     870:	41 e0       	ldi	r20, 0x01	; 1
     872:	91 50       	subi	r25, 0x01	; 1
     874:	20 40       	sbci	r18, 0x00	; 0
     876:	30 40       	sbci	r19, 0x00	; 0
     878:	40 40       	sbci	r20, 0x00	; 0
     87a:	d9 f7       	brne	.-10     	; 0x872 <__LOCK_REGION_LENGTH__+0x472>
     87c:	00 00       	nop
			delay();
			PORTD = 0x48;
     87e:	8b b9       	out	0x0b, r24	; 11
     880:	5a ea       	ldi	r21, 0xAA	; 170
     882:	96 ee       	ldi	r25, 0xE6	; 230
     884:	26 e9       	ldi	r18, 0x96	; 150
     886:	31 e0       	ldi	r19, 0x01	; 1
     888:	51 50       	subi	r21, 0x01	; 1
     88a:	90 40       	sbci	r25, 0x00	; 0
     88c:	20 40       	sbci	r18, 0x00	; 0
     88e:	30 40       	sbci	r19, 0x00	; 0
     890:	d9 f7       	brne	.-10     	; 0x888 <__LOCK_REGION_LENGTH__+0x488>
     892:	00 00       	nop
			delay();
			PORTD = 0x48;
     894:	8b b9       	out	0x0b, r24	; 11
     896:	4a ea       	ldi	r20, 0xAA	; 170
     898:	56 ee       	ldi	r21, 0xE6	; 230
     89a:	86 e9       	ldi	r24, 0x96	; 150
     89c:	91 e0       	ldi	r25, 0x01	; 1
     89e:	41 50       	subi	r20, 0x01	; 1
     8a0:	50 40       	sbci	r21, 0x00	; 0
     8a2:	80 40       	sbci	r24, 0x00	; 0
     8a4:	90 40       	sbci	r25, 0x00	; 0
     8a6:	d9 f7       	brne	.-10     	; 0x89e <__LOCK_REGION_LENGTH__+0x49e>
     8a8:	00 00       	nop
			delay();
			PORTD = 0x30;
     8aa:	80 e3       	ldi	r24, 0x30	; 48
     8ac:	8b b9       	out	0x0b, r24	; 11
     8ae:	2a ea       	ldi	r18, 0xAA	; 170
     8b0:	36 ee       	ldi	r19, 0xE6	; 230
     8b2:	46 e9       	ldi	r20, 0x96	; 150
     8b4:	51 e0       	ldi	r21, 0x01	; 1
     8b6:	21 50       	subi	r18, 0x01	; 1
     8b8:	30 40       	sbci	r19, 0x00	; 0
     8ba:	40 40       	sbci	r20, 0x00	; 0
     8bc:	50 40       	sbci	r21, 0x00	; 0
     8be:	d9 f7       	brne	.-10     	; 0x8b6 <__LOCK_REGION_LENGTH__+0x4b6>
     8c0:	00 00       	nop
     8c2:	59 c5       	rjmp	.+2738   	; 0x1376 <__stack+0xa77>
			delay();
			break;
		case 'Q':
			//3D 41 45 43 3F
			PORTD = 0x3D;
     8c4:	8d e3       	ldi	r24, 0x3D	; 61
     8c6:	8b b9       	out	0x0b, r24	; 11
     8c8:	8a ea       	ldi	r24, 0xAA	; 170
     8ca:	96 ee       	ldi	r25, 0xE6	; 230
     8cc:	26 e9       	ldi	r18, 0x96	; 150
     8ce:	31 e0       	ldi	r19, 0x01	; 1
     8d0:	81 50       	subi	r24, 0x01	; 1
     8d2:	90 40       	sbci	r25, 0x00	; 0
     8d4:	20 40       	sbci	r18, 0x00	; 0
     8d6:	30 40       	sbci	r19, 0x00	; 0
     8d8:	d9 f7       	brne	.-10     	; 0x8d0 <__LOCK_REGION_LENGTH__+0x4d0>
     8da:	00 00       	nop
			delay();
			PORTD = 0x41;
     8dc:	81 e4       	ldi	r24, 0x41	; 65
     8de:	8b b9       	out	0x0b, r24	; 11
     8e0:	4a ea       	ldi	r20, 0xAA	; 170
     8e2:	56 ee       	ldi	r21, 0xE6	; 230
     8e4:	86 e9       	ldi	r24, 0x96	; 150
     8e6:	91 e0       	ldi	r25, 0x01	; 1
     8e8:	41 50       	subi	r20, 0x01	; 1
     8ea:	50 40       	sbci	r21, 0x00	; 0
     8ec:	80 40       	sbci	r24, 0x00	; 0
     8ee:	90 40       	sbci	r25, 0x00	; 0
     8f0:	d9 f7       	brne	.-10     	; 0x8e8 <__LOCK_REGION_LENGTH__+0x4e8>
     8f2:	00 00       	nop
			delay();
			PORTD = 0x45;
     8f4:	85 e4       	ldi	r24, 0x45	; 69
     8f6:	8b b9       	out	0x0b, r24	; 11
     8f8:	2a ea       	ldi	r18, 0xAA	; 170
     8fa:	36 ee       	ldi	r19, 0xE6	; 230
     8fc:	46 e9       	ldi	r20, 0x96	; 150
     8fe:	51 e0       	ldi	r21, 0x01	; 1
     900:	21 50       	subi	r18, 0x01	; 1
     902:	30 40       	sbci	r19, 0x00	; 0
     904:	40 40       	sbci	r20, 0x00	; 0
     906:	50 40       	sbci	r21, 0x00	; 0
     908:	d9 f7       	brne	.-10     	; 0x900 <__stack+0x1>
     90a:	00 00       	nop
			delay();
			PORTD = 0x43;
     90c:	83 e4       	ldi	r24, 0x43	; 67
     90e:	8b b9       	out	0x0b, r24	; 11
     910:	8a ea       	ldi	r24, 0xAA	; 170
     912:	96 ee       	ldi	r25, 0xE6	; 230
     914:	26 e9       	ldi	r18, 0x96	; 150
     916:	31 e0       	ldi	r19, 0x01	; 1
     918:	81 50       	subi	r24, 0x01	; 1
     91a:	90 40       	sbci	r25, 0x00	; 0
     91c:	20 40       	sbci	r18, 0x00	; 0
     91e:	30 40       	sbci	r19, 0x00	; 0
     920:	d9 f7       	brne	.-10     	; 0x918 <__stack+0x19>
     922:	00 00       	nop
			delay();
			PORTD = 0x3F;
     924:	8f e3       	ldi	r24, 0x3F	; 63
     926:	8b b9       	out	0x0b, r24	; 11
     928:	4a ea       	ldi	r20, 0xAA	; 170
     92a:	56 ee       	ldi	r21, 0xE6	; 230
     92c:	86 e9       	ldi	r24, 0x96	; 150
     92e:	91 e0       	ldi	r25, 0x01	; 1
     930:	41 50       	subi	r20, 0x01	; 1
     932:	50 40       	sbci	r21, 0x00	; 0
     934:	80 40       	sbci	r24, 0x00	; 0
     936:	90 40       	sbci	r25, 0x00	; 0
     938:	d9 f7       	brne	.-10     	; 0x930 <__stack+0x31>
     93a:	00 00       	nop
     93c:	1c c5       	rjmp	.+2616   	; 0x1376 <__stack+0xa77>
			delay();
			break;
		case 'R':
			//7F 48 48 48 37
			PORTD = 0x7F;
     93e:	8f e7       	ldi	r24, 0x7F	; 127
     940:	8b b9       	out	0x0b, r24	; 11
     942:	2a ea       	ldi	r18, 0xAA	; 170
     944:	36 ee       	ldi	r19, 0xE6	; 230
     946:	46 e9       	ldi	r20, 0x96	; 150
     948:	51 e0       	ldi	r21, 0x01	; 1
     94a:	21 50       	subi	r18, 0x01	; 1
     94c:	30 40       	sbci	r19, 0x00	; 0
     94e:	40 40       	sbci	r20, 0x00	; 0
     950:	50 40       	sbci	r21, 0x00	; 0
     952:	d9 f7       	brne	.-10     	; 0x94a <__stack+0x4b>
     954:	00 00       	nop
			delay();
			PORTD = 0x48;
     956:	88 e4       	ldi	r24, 0x48	; 72
     958:	8b b9       	out	0x0b, r24	; 11
     95a:	9a ea       	ldi	r25, 0xAA	; 170
     95c:	26 ee       	ldi	r18, 0xE6	; 230
     95e:	36 e9       	ldi	r19, 0x96	; 150
     960:	41 e0       	ldi	r20, 0x01	; 1
     962:	91 50       	subi	r25, 0x01	; 1
     964:	20 40       	sbci	r18, 0x00	; 0
     966:	30 40       	sbci	r19, 0x00	; 0
     968:	40 40       	sbci	r20, 0x00	; 0
     96a:	d9 f7       	brne	.-10     	; 0x962 <__stack+0x63>
     96c:	00 00       	nop
			delay();
			PORTD = 0x48;
     96e:	8b b9       	out	0x0b, r24	; 11
     970:	5a ea       	ldi	r21, 0xAA	; 170
     972:	96 ee       	ldi	r25, 0xE6	; 230
     974:	26 e9       	ldi	r18, 0x96	; 150
     976:	31 e0       	ldi	r19, 0x01	; 1
     978:	51 50       	subi	r21, 0x01	; 1
     97a:	90 40       	sbci	r25, 0x00	; 0
     97c:	20 40       	sbci	r18, 0x00	; 0
     97e:	30 40       	sbci	r19, 0x00	; 0
     980:	d9 f7       	brne	.-10     	; 0x978 <__stack+0x79>
     982:	00 00       	nop
			delay();
			PORTD = 0x48;
     984:	8b b9       	out	0x0b, r24	; 11
     986:	4a ea       	ldi	r20, 0xAA	; 170
     988:	56 ee       	ldi	r21, 0xE6	; 230
     98a:	86 e9       	ldi	r24, 0x96	; 150
     98c:	91 e0       	ldi	r25, 0x01	; 1
     98e:	41 50       	subi	r20, 0x01	; 1
     990:	50 40       	sbci	r21, 0x00	; 0
     992:	80 40       	sbci	r24, 0x00	; 0
     994:	90 40       	sbci	r25, 0x00	; 0
     996:	d9 f7       	brne	.-10     	; 0x98e <__stack+0x8f>
     998:	00 00       	nop
			delay();
			PORTD = 0x37;
     99a:	87 e3       	ldi	r24, 0x37	; 55
     99c:	8b b9       	out	0x0b, r24	; 11
     99e:	2a ea       	ldi	r18, 0xAA	; 170
     9a0:	36 ee       	ldi	r19, 0xE6	; 230
     9a2:	46 e9       	ldi	r20, 0x96	; 150
     9a4:	51 e0       	ldi	r21, 0x01	; 1
     9a6:	21 50       	subi	r18, 0x01	; 1
     9a8:	30 40       	sbci	r19, 0x00	; 0
     9aa:	40 40       	sbci	r20, 0x00	; 0
     9ac:	50 40       	sbci	r21, 0x00	; 0
     9ae:	d9 f7       	brne	.-10     	; 0x9a6 <__stack+0xa7>
     9b0:	00 00       	nop
     9b2:	e1 c4       	rjmp	.+2498   	; 0x1376 <__stack+0xa77>
			delay();
			break;
		case 'S':
			//31 49 49 49 46
			PORTD = 0x31;
     9b4:	81 e3       	ldi	r24, 0x31	; 49
     9b6:	8b b9       	out	0x0b, r24	; 11
     9b8:	8a ea       	ldi	r24, 0xAA	; 170
     9ba:	96 ee       	ldi	r25, 0xE6	; 230
     9bc:	26 e9       	ldi	r18, 0x96	; 150
     9be:	31 e0       	ldi	r19, 0x01	; 1
     9c0:	81 50       	subi	r24, 0x01	; 1
     9c2:	90 40       	sbci	r25, 0x00	; 0
     9c4:	20 40       	sbci	r18, 0x00	; 0
     9c6:	30 40       	sbci	r19, 0x00	; 0
     9c8:	d9 f7       	brne	.-10     	; 0x9c0 <__stack+0xc1>
     9ca:	00 00       	nop
			delay();
			PORTD = 0x49;
     9cc:	89 e4       	ldi	r24, 0x49	; 73
     9ce:	8b b9       	out	0x0b, r24	; 11
     9d0:	4a ea       	ldi	r20, 0xAA	; 170
     9d2:	56 ee       	ldi	r21, 0xE6	; 230
     9d4:	96 e9       	ldi	r25, 0x96	; 150
     9d6:	21 e0       	ldi	r18, 0x01	; 1
     9d8:	41 50       	subi	r20, 0x01	; 1
     9da:	50 40       	sbci	r21, 0x00	; 0
     9dc:	90 40       	sbci	r25, 0x00	; 0
     9de:	20 40       	sbci	r18, 0x00	; 0
     9e0:	d9 f7       	brne	.-10     	; 0x9d8 <__stack+0xd9>
     9e2:	00 00       	nop
			delay();
			PORTD = 0x49;
     9e4:	8b b9       	out	0x0b, r24	; 11
     9e6:	3a ea       	ldi	r19, 0xAA	; 170
     9e8:	46 ee       	ldi	r20, 0xE6	; 230
     9ea:	56 e9       	ldi	r21, 0x96	; 150
     9ec:	91 e0       	ldi	r25, 0x01	; 1
     9ee:	31 50       	subi	r19, 0x01	; 1
     9f0:	40 40       	sbci	r20, 0x00	; 0
     9f2:	50 40       	sbci	r21, 0x00	; 0
     9f4:	90 40       	sbci	r25, 0x00	; 0
     9f6:	d9 f7       	brne	.-10     	; 0x9ee <__stack+0xef>
     9f8:	00 00       	nop
			delay();
			PORTD = 0x49;
     9fa:	8b b9       	out	0x0b, r24	; 11
     9fc:	2a ea       	ldi	r18, 0xAA	; 170
     9fe:	36 ee       	ldi	r19, 0xE6	; 230
     a00:	46 e9       	ldi	r20, 0x96	; 150
     a02:	51 e0       	ldi	r21, 0x01	; 1
     a04:	21 50       	subi	r18, 0x01	; 1
     a06:	30 40       	sbci	r19, 0x00	; 0
     a08:	40 40       	sbci	r20, 0x00	; 0
     a0a:	50 40       	sbci	r21, 0x00	; 0
     a0c:	d9 f7       	brne	.-10     	; 0xa04 <__stack+0x105>
     a0e:	00 00       	nop
			delay();
			PORTD = 0x46;
     a10:	86 e4       	ldi	r24, 0x46	; 70
     a12:	8b b9       	out	0x0b, r24	; 11
     a14:	8a ea       	ldi	r24, 0xAA	; 170
     a16:	96 ee       	ldi	r25, 0xE6	; 230
     a18:	26 e9       	ldi	r18, 0x96	; 150
     a1a:	31 e0       	ldi	r19, 0x01	; 1
     a1c:	81 50       	subi	r24, 0x01	; 1
     a1e:	90 40       	sbci	r25, 0x00	; 0
     a20:	20 40       	sbci	r18, 0x00	; 0
     a22:	30 40       	sbci	r19, 0x00	; 0
     a24:	d9 f7       	brne	.-10     	; 0xa1c <__stack+0x11d>
     a26:	00 00       	nop
     a28:	a6 c4       	rjmp	.+2380   	; 0x1376 <__stack+0xa77>
			delay();
			break;
		case 'T':
			//40 40 7F 40 40
			PORTD = 0x40;
     a2a:	80 e4       	ldi	r24, 0x40	; 64
     a2c:	8b b9       	out	0x0b, r24	; 11
     a2e:	4a ea       	ldi	r20, 0xAA	; 170
     a30:	56 ee       	ldi	r21, 0xE6	; 230
     a32:	96 e9       	ldi	r25, 0x96	; 150
     a34:	21 e0       	ldi	r18, 0x01	; 1
     a36:	41 50       	subi	r20, 0x01	; 1
     a38:	50 40       	sbci	r21, 0x00	; 0
     a3a:	90 40       	sbci	r25, 0x00	; 0
     a3c:	20 40       	sbci	r18, 0x00	; 0
     a3e:	d9 f7       	brne	.-10     	; 0xa36 <__stack+0x137>
     a40:	00 00       	nop
			delay();
			PORTD = 0x40;
     a42:	8b b9       	out	0x0b, r24	; 11
     a44:	3a ea       	ldi	r19, 0xAA	; 170
     a46:	46 ee       	ldi	r20, 0xE6	; 230
     a48:	56 e9       	ldi	r21, 0x96	; 150
     a4a:	91 e0       	ldi	r25, 0x01	; 1
     a4c:	31 50       	subi	r19, 0x01	; 1
     a4e:	40 40       	sbci	r20, 0x00	; 0
     a50:	50 40       	sbci	r21, 0x00	; 0
     a52:	90 40       	sbci	r25, 0x00	; 0
     a54:	d9 f7       	brne	.-10     	; 0xa4c <__stack+0x14d>
     a56:	00 00       	nop
			delay();
			PORTD = 0x7F;
     a58:	9f e7       	ldi	r25, 0x7F	; 127
     a5a:	9b b9       	out	0x0b, r25	; 11
     a5c:	2a ea       	ldi	r18, 0xAA	; 170
     a5e:	36 ee       	ldi	r19, 0xE6	; 230
     a60:	46 e9       	ldi	r20, 0x96	; 150
     a62:	51 e0       	ldi	r21, 0x01	; 1
     a64:	21 50       	subi	r18, 0x01	; 1
     a66:	30 40       	sbci	r19, 0x00	; 0
     a68:	40 40       	sbci	r20, 0x00	; 0
     a6a:	50 40       	sbci	r21, 0x00	; 0
     a6c:	d9 f7       	brne	.-10     	; 0xa64 <__stack+0x165>
     a6e:	00 00       	nop
			delay();
			PORTD = 0x40;
     a70:	8b b9       	out	0x0b, r24	; 11
     a72:	9a ea       	ldi	r25, 0xAA	; 170
     a74:	26 ee       	ldi	r18, 0xE6	; 230
     a76:	36 e9       	ldi	r19, 0x96	; 150
     a78:	41 e0       	ldi	r20, 0x01	; 1
     a7a:	91 50       	subi	r25, 0x01	; 1
     a7c:	20 40       	sbci	r18, 0x00	; 0
     a7e:	30 40       	sbci	r19, 0x00	; 0
     a80:	40 40       	sbci	r20, 0x00	; 0
     a82:	d9 f7       	brne	.-10     	; 0xa7a <__stack+0x17b>
     a84:	00 00       	nop
			delay();
			PORTD = 0x40;
     a86:	8b b9       	out	0x0b, r24	; 11
     a88:	5a ea       	ldi	r21, 0xAA	; 170
     a8a:	86 ee       	ldi	r24, 0xE6	; 230
     a8c:	96 e9       	ldi	r25, 0x96	; 150
     a8e:	21 e0       	ldi	r18, 0x01	; 1
     a90:	51 50       	subi	r21, 0x01	; 1
     a92:	80 40       	sbci	r24, 0x00	; 0
     a94:	90 40       	sbci	r25, 0x00	; 0
     a96:	20 40       	sbci	r18, 0x00	; 0
     a98:	d9 f7       	brne	.-10     	; 0xa90 <__stack+0x191>
     a9a:	00 00       	nop
     a9c:	6c c4       	rjmp	.+2264   	; 0x1376 <__stack+0xa77>
			delay();
			break;
		case 'U':
			//7D 01 01 01 7D
			PORTD = 0x7D;
     a9e:	9d e7       	ldi	r25, 0x7D	; 125
     aa0:	9b b9       	out	0x0b, r25	; 11
     aa2:	3a ea       	ldi	r19, 0xAA	; 170
     aa4:	46 ee       	ldi	r20, 0xE6	; 230
     aa6:	56 e9       	ldi	r21, 0x96	; 150
     aa8:	81 e0       	ldi	r24, 0x01	; 1
     aaa:	31 50       	subi	r19, 0x01	; 1
     aac:	40 40       	sbci	r20, 0x00	; 0
     aae:	50 40       	sbci	r21, 0x00	; 0
     ab0:	80 40       	sbci	r24, 0x00	; 0
     ab2:	d9 f7       	brne	.-10     	; 0xaaa <__stack+0x1ab>
     ab4:	00 00       	nop
			delay();
			PORTD = 0x01;
     ab6:	81 e0       	ldi	r24, 0x01	; 1
     ab8:	8b b9       	out	0x0b, r24	; 11
     aba:	2a ea       	ldi	r18, 0xAA	; 170
     abc:	36 ee       	ldi	r19, 0xE6	; 230
     abe:	46 e9       	ldi	r20, 0x96	; 150
     ac0:	51 e0       	ldi	r21, 0x01	; 1
     ac2:	21 50       	subi	r18, 0x01	; 1
     ac4:	30 40       	sbci	r19, 0x00	; 0
     ac6:	40 40       	sbci	r20, 0x00	; 0
     ac8:	50 40       	sbci	r21, 0x00	; 0
     aca:	d9 f7       	brne	.-10     	; 0xac2 <__stack+0x1c3>
     acc:	00 00       	nop
			delay();
			PORTD = 0x01;
     ace:	8b b9       	out	0x0b, r24	; 11
     ad0:	2a ea       	ldi	r18, 0xAA	; 170
     ad2:	36 ee       	ldi	r19, 0xE6	; 230
     ad4:	46 e9       	ldi	r20, 0x96	; 150
     ad6:	51 e0       	ldi	r21, 0x01	; 1
     ad8:	21 50       	subi	r18, 0x01	; 1
     ada:	30 40       	sbci	r19, 0x00	; 0
     adc:	40 40       	sbci	r20, 0x00	; 0
     ade:	50 40       	sbci	r21, 0x00	; 0
     ae0:	d9 f7       	brne	.-10     	; 0xad8 <__stack+0x1d9>
     ae2:	00 00       	nop
			delay();
			PORTD = 0x01;
     ae4:	8b b9       	out	0x0b, r24	; 11
     ae6:	8a ea       	ldi	r24, 0xAA	; 170
     ae8:	26 ee       	ldi	r18, 0xE6	; 230
     aea:	36 e9       	ldi	r19, 0x96	; 150
     aec:	41 e0       	ldi	r20, 0x01	; 1
     aee:	81 50       	subi	r24, 0x01	; 1
     af0:	20 40       	sbci	r18, 0x00	; 0
     af2:	30 40       	sbci	r19, 0x00	; 0
     af4:	40 40       	sbci	r20, 0x00	; 0
     af6:	d9 f7       	brne	.-10     	; 0xaee <__stack+0x1ef>
     af8:	00 00       	nop
			delay();
			PORTD = 0x7D;
     afa:	9b b9       	out	0x0b, r25	; 11
     afc:	5a ea       	ldi	r21, 0xAA	; 170
     afe:	86 ee       	ldi	r24, 0xE6	; 230
     b00:	96 e9       	ldi	r25, 0x96	; 150
     b02:	21 e0       	ldi	r18, 0x01	; 1
     b04:	51 50       	subi	r21, 0x01	; 1
     b06:	80 40       	sbci	r24, 0x00	; 0
     b08:	90 40       	sbci	r25, 0x00	; 0
     b0a:	20 40       	sbci	r18, 0x00	; 0
     b0c:	d9 f7       	brne	.-10     	; 0xb04 <__stack+0x205>
     b0e:	00 00       	nop
     b10:	32 c4       	rjmp	.+2148   	; 0x1376 <__stack+0xa77>
			delay();
			break;
		case 'V':
			//7C 02 01 02 7C
			PORTD = 0x7C;
     b12:	8c e7       	ldi	r24, 0x7C	; 124
     b14:	8b b9       	out	0x0b, r24	; 11
     b16:	3a ea       	ldi	r19, 0xAA	; 170
     b18:	46 ee       	ldi	r20, 0xE6	; 230
     b1a:	56 e9       	ldi	r21, 0x96	; 150
     b1c:	91 e0       	ldi	r25, 0x01	; 1
     b1e:	31 50       	subi	r19, 0x01	; 1
     b20:	40 40       	sbci	r20, 0x00	; 0
     b22:	50 40       	sbci	r21, 0x00	; 0
     b24:	90 40       	sbci	r25, 0x00	; 0
     b26:	d9 f7       	brne	.-10     	; 0xb1e <__stack+0x21f>
     b28:	00 00       	nop
			delay();
			PORTD = 0x02;
     b2a:	92 e0       	ldi	r25, 0x02	; 2
     b2c:	9b b9       	out	0x0b, r25	; 11
     b2e:	2a ea       	ldi	r18, 0xAA	; 170
     b30:	36 ee       	ldi	r19, 0xE6	; 230
     b32:	46 e9       	ldi	r20, 0x96	; 150
     b34:	51 e0       	ldi	r21, 0x01	; 1
     b36:	21 50       	subi	r18, 0x01	; 1
     b38:	30 40       	sbci	r19, 0x00	; 0
     b3a:	40 40       	sbci	r20, 0x00	; 0
     b3c:	50 40       	sbci	r21, 0x00	; 0
     b3e:	d9 f7       	brne	.-10     	; 0xb36 <__stack+0x237>
     b40:	00 00       	nop
			delay();
			PORTD = 0x01;
     b42:	21 e0       	ldi	r18, 0x01	; 1
     b44:	2b b9       	out	0x0b, r18	; 11
     b46:	2a ea       	ldi	r18, 0xAA	; 170
     b48:	36 ee       	ldi	r19, 0xE6	; 230
     b4a:	46 e9       	ldi	r20, 0x96	; 150
     b4c:	51 e0       	ldi	r21, 0x01	; 1
     b4e:	21 50       	subi	r18, 0x01	; 1
     b50:	30 40       	sbci	r19, 0x00	; 0
     b52:	40 40       	sbci	r20, 0x00	; 0
     b54:	50 40       	sbci	r21, 0x00	; 0
     b56:	d9 f7       	brne	.-10     	; 0xb4e <__stack+0x24f>
     b58:	00 00       	nop
			delay();
			PORTD = 0x02;
     b5a:	9b b9       	out	0x0b, r25	; 11
     b5c:	9a ea       	ldi	r25, 0xAA	; 170
     b5e:	26 ee       	ldi	r18, 0xE6	; 230
     b60:	36 e9       	ldi	r19, 0x96	; 150
     b62:	41 e0       	ldi	r20, 0x01	; 1
     b64:	91 50       	subi	r25, 0x01	; 1
     b66:	20 40       	sbci	r18, 0x00	; 0
     b68:	30 40       	sbci	r19, 0x00	; 0
     b6a:	40 40       	sbci	r20, 0x00	; 0
     b6c:	d9 f7       	brne	.-10     	; 0xb64 <__stack+0x265>
     b6e:	00 00       	nop
			delay();
			PORTD = 0x7C;
     b70:	8b b9       	out	0x0b, r24	; 11
     b72:	5a ea       	ldi	r21, 0xAA	; 170
     b74:	86 ee       	ldi	r24, 0xE6	; 230
     b76:	96 e9       	ldi	r25, 0x96	; 150
     b78:	21 e0       	ldi	r18, 0x01	; 1
     b7a:	51 50       	subi	r21, 0x01	; 1
     b7c:	80 40       	sbci	r24, 0x00	; 0
     b7e:	90 40       	sbci	r25, 0x00	; 0
     b80:	20 40       	sbci	r18, 0x00	; 0
     b82:	d9 f7       	brne	.-10     	; 0xb7a <__stack+0x27b>
     b84:	00 00       	nop
     b86:	f7 c3       	rjmp	.+2030   	; 0x1376 <__stack+0xa77>
			delay();
			break;
		case 'W':
			//7F 02 0C 02 7F
			PORTD = 0x7F;
     b88:	8f e7       	ldi	r24, 0x7F	; 127
     b8a:	8b b9       	out	0x0b, r24	; 11
     b8c:	3a ea       	ldi	r19, 0xAA	; 170
     b8e:	46 ee       	ldi	r20, 0xE6	; 230
     b90:	56 e9       	ldi	r21, 0x96	; 150
     b92:	91 e0       	ldi	r25, 0x01	; 1
     b94:	31 50       	subi	r19, 0x01	; 1
     b96:	40 40       	sbci	r20, 0x00	; 0
     b98:	50 40       	sbci	r21, 0x00	; 0
     b9a:	90 40       	sbci	r25, 0x00	; 0
     b9c:	d9 f7       	brne	.-10     	; 0xb94 <__stack+0x295>
     b9e:	00 00       	nop
			delay();
			PORTD = 0x02;
     ba0:	92 e0       	ldi	r25, 0x02	; 2
     ba2:	9b b9       	out	0x0b, r25	; 11
     ba4:	2a ea       	ldi	r18, 0xAA	; 170
     ba6:	36 ee       	ldi	r19, 0xE6	; 230
     ba8:	46 e9       	ldi	r20, 0x96	; 150
     baa:	51 e0       	ldi	r21, 0x01	; 1
     bac:	21 50       	subi	r18, 0x01	; 1
     bae:	30 40       	sbci	r19, 0x00	; 0
     bb0:	40 40       	sbci	r20, 0x00	; 0
     bb2:	50 40       	sbci	r21, 0x00	; 0
     bb4:	d9 f7       	brne	.-10     	; 0xbac <__stack+0x2ad>
     bb6:	00 00       	nop
			delay();
			PORTD = 0x0C;
     bb8:	2c e0       	ldi	r18, 0x0C	; 12
     bba:	2b b9       	out	0x0b, r18	; 11
     bbc:	2a ea       	ldi	r18, 0xAA	; 170
     bbe:	36 ee       	ldi	r19, 0xE6	; 230
     bc0:	46 e9       	ldi	r20, 0x96	; 150
     bc2:	51 e0       	ldi	r21, 0x01	; 1
     bc4:	21 50       	subi	r18, 0x01	; 1
     bc6:	30 40       	sbci	r19, 0x00	; 0
     bc8:	40 40       	sbci	r20, 0x00	; 0
     bca:	50 40       	sbci	r21, 0x00	; 0
     bcc:	d9 f7       	brne	.-10     	; 0xbc4 <__stack+0x2c5>
     bce:	00 00       	nop
			delay();
			PORTD = 0x02;
     bd0:	9b b9       	out	0x0b, r25	; 11
     bd2:	9a ea       	ldi	r25, 0xAA	; 170
     bd4:	26 ee       	ldi	r18, 0xE6	; 230
     bd6:	36 e9       	ldi	r19, 0x96	; 150
     bd8:	41 e0       	ldi	r20, 0x01	; 1
     bda:	91 50       	subi	r25, 0x01	; 1
     bdc:	20 40       	sbci	r18, 0x00	; 0
     bde:	30 40       	sbci	r19, 0x00	; 0
     be0:	40 40       	sbci	r20, 0x00	; 0
     be2:	d9 f7       	brne	.-10     	; 0xbda <__stack+0x2db>
     be4:	00 00       	nop
			delay();
			PORTD = 0x7F;
     be6:	8b b9       	out	0x0b, r24	; 11
     be8:	5a ea       	ldi	r21, 0xAA	; 170
     bea:	86 ee       	ldi	r24, 0xE6	; 230
     bec:	96 e9       	ldi	r25, 0x96	; 150
     bee:	21 e0       	ldi	r18, 0x01	; 1
     bf0:	51 50       	subi	r21, 0x01	; 1
     bf2:	80 40       	sbci	r24, 0x00	; 0
     bf4:	90 40       	sbci	r25, 0x00	; 0
     bf6:	20 40       	sbci	r18, 0x00	; 0
     bf8:	d9 f7       	brne	.-10     	; 0xbf0 <__stack+0x2f1>
     bfa:	00 00       	nop
     bfc:	bc c3       	rjmp	.+1912   	; 0x1376 <__stack+0xa77>
			delay();
			break;
		case 'X':
			//63 14 08 14 63
			PORTD = 0x63;
     bfe:	83 e6       	ldi	r24, 0x63	; 99
     c00:	8b b9       	out	0x0b, r24	; 11
     c02:	3a ea       	ldi	r19, 0xAA	; 170
     c04:	46 ee       	ldi	r20, 0xE6	; 230
     c06:	56 e9       	ldi	r21, 0x96	; 150
     c08:	91 e0       	ldi	r25, 0x01	; 1
     c0a:	31 50       	subi	r19, 0x01	; 1
     c0c:	40 40       	sbci	r20, 0x00	; 0
     c0e:	50 40       	sbci	r21, 0x00	; 0
     c10:	90 40       	sbci	r25, 0x00	; 0
     c12:	d9 f7       	brne	.-10     	; 0xc0a <__stack+0x30b>
     c14:	00 00       	nop
			delay();
			PORTD = 0x14;
     c16:	94 e1       	ldi	r25, 0x14	; 20
     c18:	9b b9       	out	0x0b, r25	; 11
     c1a:	2a ea       	ldi	r18, 0xAA	; 170
     c1c:	36 ee       	ldi	r19, 0xE6	; 230
     c1e:	46 e9       	ldi	r20, 0x96	; 150
     c20:	51 e0       	ldi	r21, 0x01	; 1
     c22:	21 50       	subi	r18, 0x01	; 1
     c24:	30 40       	sbci	r19, 0x00	; 0
     c26:	40 40       	sbci	r20, 0x00	; 0
     c28:	50 40       	sbci	r21, 0x00	; 0
     c2a:	d9 f7       	brne	.-10     	; 0xc22 <__stack+0x323>
     c2c:	00 00       	nop
			delay();
			PORTD = 0x08;
     c2e:	28 e0       	ldi	r18, 0x08	; 8
     c30:	2b b9       	out	0x0b, r18	; 11
     c32:	2a ea       	ldi	r18, 0xAA	; 170
     c34:	36 ee       	ldi	r19, 0xE6	; 230
     c36:	46 e9       	ldi	r20, 0x96	; 150
     c38:	51 e0       	ldi	r21, 0x01	; 1
     c3a:	21 50       	subi	r18, 0x01	; 1
     c3c:	30 40       	sbci	r19, 0x00	; 0
     c3e:	40 40       	sbci	r20, 0x00	; 0
     c40:	50 40       	sbci	r21, 0x00	; 0
     c42:	d9 f7       	brne	.-10     	; 0xc3a <__stack+0x33b>
     c44:	00 00       	nop
			delay();
			PORTD = 0x14;
     c46:	9b b9       	out	0x0b, r25	; 11
     c48:	9a ea       	ldi	r25, 0xAA	; 170
     c4a:	26 ee       	ldi	r18, 0xE6	; 230
     c4c:	36 e9       	ldi	r19, 0x96	; 150
     c4e:	41 e0       	ldi	r20, 0x01	; 1
     c50:	91 50       	subi	r25, 0x01	; 1
     c52:	20 40       	sbci	r18, 0x00	; 0
     c54:	30 40       	sbci	r19, 0x00	; 0
     c56:	40 40       	sbci	r20, 0x00	; 0
     c58:	d9 f7       	brne	.-10     	; 0xc50 <__stack+0x351>
     c5a:	00 00       	nop
			delay();
			PORTD = 0x63;
     c5c:	8b b9       	out	0x0b, r24	; 11
     c5e:	5a ea       	ldi	r21, 0xAA	; 170
     c60:	86 ee       	ldi	r24, 0xE6	; 230
     c62:	96 e9       	ldi	r25, 0x96	; 150
     c64:	21 e0       	ldi	r18, 0x01	; 1
     c66:	51 50       	subi	r21, 0x01	; 1
     c68:	80 40       	sbci	r24, 0x00	; 0
     c6a:	90 40       	sbci	r25, 0x00	; 0
     c6c:	20 40       	sbci	r18, 0x00	; 0
     c6e:	d9 f7       	brne	.-10     	; 0xc66 <__stack+0x367>
     c70:	00 00       	nop
     c72:	81 c3       	rjmp	.+1794   	; 0x1376 <__stack+0xa77>
			delay();
			break;
		case 'Y':
			//60 18 07 18 60
			PORTD = 0x60;
     c74:	80 e6       	ldi	r24, 0x60	; 96
     c76:	8b b9       	out	0x0b, r24	; 11
     c78:	3a ea       	ldi	r19, 0xAA	; 170
     c7a:	46 ee       	ldi	r20, 0xE6	; 230
     c7c:	56 e9       	ldi	r21, 0x96	; 150
     c7e:	91 e0       	ldi	r25, 0x01	; 1
     c80:	31 50       	subi	r19, 0x01	; 1
     c82:	40 40       	sbci	r20, 0x00	; 0
     c84:	50 40       	sbci	r21, 0x00	; 0
     c86:	90 40       	sbci	r25, 0x00	; 0
     c88:	d9 f7       	brne	.-10     	; 0xc80 <__stack+0x381>
     c8a:	00 00       	nop
			delay();
			PORTD = 0x18;
     c8c:	98 e1       	ldi	r25, 0x18	; 24
     c8e:	9b b9       	out	0x0b, r25	; 11
     c90:	2a ea       	ldi	r18, 0xAA	; 170
     c92:	36 ee       	ldi	r19, 0xE6	; 230
     c94:	46 e9       	ldi	r20, 0x96	; 150
     c96:	51 e0       	ldi	r21, 0x01	; 1
     c98:	21 50       	subi	r18, 0x01	; 1
     c9a:	30 40       	sbci	r19, 0x00	; 0
     c9c:	40 40       	sbci	r20, 0x00	; 0
     c9e:	50 40       	sbci	r21, 0x00	; 0
     ca0:	d9 f7       	brne	.-10     	; 0xc98 <__stack+0x399>
     ca2:	00 00       	nop
			delay();
			PORTD = 0x07;
     ca4:	27 e0       	ldi	r18, 0x07	; 7
     ca6:	2b b9       	out	0x0b, r18	; 11
     ca8:	2a ea       	ldi	r18, 0xAA	; 170
     caa:	36 ee       	ldi	r19, 0xE6	; 230
     cac:	46 e9       	ldi	r20, 0x96	; 150
     cae:	51 e0       	ldi	r21, 0x01	; 1
     cb0:	21 50       	subi	r18, 0x01	; 1
     cb2:	30 40       	sbci	r19, 0x00	; 0
     cb4:	40 40       	sbci	r20, 0x00	; 0
     cb6:	50 40       	sbci	r21, 0x00	; 0
     cb8:	d9 f7       	brne	.-10     	; 0xcb0 <__stack+0x3b1>
     cba:	00 00       	nop
			delay();
			PORTD = 0x18;
     cbc:	9b b9       	out	0x0b, r25	; 11
     cbe:	9a ea       	ldi	r25, 0xAA	; 170
     cc0:	26 ee       	ldi	r18, 0xE6	; 230
     cc2:	36 e9       	ldi	r19, 0x96	; 150
     cc4:	41 e0       	ldi	r20, 0x01	; 1
     cc6:	91 50       	subi	r25, 0x01	; 1
     cc8:	20 40       	sbci	r18, 0x00	; 0
     cca:	30 40       	sbci	r19, 0x00	; 0
     ccc:	40 40       	sbci	r20, 0x00	; 0
     cce:	d9 f7       	brne	.-10     	; 0xcc6 <__stack+0x3c7>
     cd0:	00 00       	nop
			delay();
			PORTD = 0x60;
     cd2:	8b b9       	out	0x0b, r24	; 11
     cd4:	5a ea       	ldi	r21, 0xAA	; 170
     cd6:	86 ee       	ldi	r24, 0xE6	; 230
     cd8:	96 e9       	ldi	r25, 0x96	; 150
     cda:	21 e0       	ldi	r18, 0x01	; 1
     cdc:	51 50       	subi	r21, 0x01	; 1
     cde:	80 40       	sbci	r24, 0x00	; 0
     ce0:	90 40       	sbci	r25, 0x00	; 0
     ce2:	20 40       	sbci	r18, 0x00	; 0
     ce4:	d9 f7       	brne	.-10     	; 0xcdc <__stack+0x3dd>
     ce6:	00 00       	nop
     ce8:	46 c3       	rjmp	.+1676   	; 0x1376 <__stack+0xa77>
			delay();
			break;
		case 'Z':
			//43 45 49 51 61
			PORTD = 0x43;
     cea:	83 e4       	ldi	r24, 0x43	; 67
     cec:	8b b9       	out	0x0b, r24	; 11
     cee:	3a ea       	ldi	r19, 0xAA	; 170
     cf0:	46 ee       	ldi	r20, 0xE6	; 230
     cf2:	56 e9       	ldi	r21, 0x96	; 150
     cf4:	81 e0       	ldi	r24, 0x01	; 1
     cf6:	31 50       	subi	r19, 0x01	; 1
     cf8:	40 40       	sbci	r20, 0x00	; 0
     cfa:	50 40       	sbci	r21, 0x00	; 0
     cfc:	80 40       	sbci	r24, 0x00	; 0
     cfe:	d9 f7       	brne	.-10     	; 0xcf6 <__stack+0x3f7>
     d00:	00 00       	nop
			delay();
			PORTD = 0x45;
     d02:	85 e4       	ldi	r24, 0x45	; 69
     d04:	8b b9       	out	0x0b, r24	; 11
     d06:	9a ea       	ldi	r25, 0xAA	; 170
     d08:	26 ee       	ldi	r18, 0xE6	; 230
     d0a:	36 e9       	ldi	r19, 0x96	; 150
     d0c:	41 e0       	ldi	r20, 0x01	; 1
     d0e:	91 50       	subi	r25, 0x01	; 1
     d10:	20 40       	sbci	r18, 0x00	; 0
     d12:	30 40       	sbci	r19, 0x00	; 0
     d14:	40 40       	sbci	r20, 0x00	; 0
     d16:	d9 f7       	brne	.-10     	; 0xd0e <__stack+0x40f>
     d18:	00 00       	nop
			delay();
			PORTD = 0x49;
     d1a:	89 e4       	ldi	r24, 0x49	; 73
     d1c:	8b b9       	out	0x0b, r24	; 11
     d1e:	5a ea       	ldi	r21, 0xAA	; 170
     d20:	86 ee       	ldi	r24, 0xE6	; 230
     d22:	96 e9       	ldi	r25, 0x96	; 150
     d24:	21 e0       	ldi	r18, 0x01	; 1
     d26:	51 50       	subi	r21, 0x01	; 1
     d28:	80 40       	sbci	r24, 0x00	; 0
     d2a:	90 40       	sbci	r25, 0x00	; 0
     d2c:	20 40       	sbci	r18, 0x00	; 0
     d2e:	d9 f7       	brne	.-10     	; 0xd26 <__stack+0x427>
     d30:	00 00       	nop
			delay();
			PORTD = 0x51;
     d32:	81 e5       	ldi	r24, 0x51	; 81
     d34:	8b b9       	out	0x0b, r24	; 11
     d36:	3a ea       	ldi	r19, 0xAA	; 170
     d38:	46 ee       	ldi	r20, 0xE6	; 230
     d3a:	56 e9       	ldi	r21, 0x96	; 150
     d3c:	81 e0       	ldi	r24, 0x01	; 1
     d3e:	31 50       	subi	r19, 0x01	; 1
     d40:	40 40       	sbci	r20, 0x00	; 0
     d42:	50 40       	sbci	r21, 0x00	; 0
     d44:	80 40       	sbci	r24, 0x00	; 0
     d46:	d9 f7       	brne	.-10     	; 0xd3e <__stack+0x43f>
     d48:	00 00       	nop
			delay();
			PORTD = 0x61;
     d4a:	81 e6       	ldi	r24, 0x61	; 97
     d4c:	8b b9       	out	0x0b, r24	; 11
     d4e:	9a ea       	ldi	r25, 0xAA	; 170
     d50:	26 ee       	ldi	r18, 0xE6	; 230
     d52:	36 e9       	ldi	r19, 0x96	; 150
     d54:	41 e0       	ldi	r20, 0x01	; 1
     d56:	91 50       	subi	r25, 0x01	; 1
     d58:	20 40       	sbci	r18, 0x00	; 0
     d5a:	30 40       	sbci	r19, 0x00	; 0
     d5c:	40 40       	sbci	r20, 0x00	; 0
     d5e:	d9 f7       	brne	.-10     	; 0xd56 <__stack+0x457>
     d60:	00 00       	nop
     d62:	09 c3       	rjmp	.+1554   	; 0x1376 <__stack+0xa77>
			delay();
			break;
		case ' ':
			//00 00 00 00 00
			PORTD = 0x00;
     d64:	1b b8       	out	0x0b, r1	; 11
     d66:	5a ea       	ldi	r21, 0xAA	; 170
     d68:	86 ee       	ldi	r24, 0xE6	; 230
     d6a:	96 e9       	ldi	r25, 0x96	; 150
     d6c:	21 e0       	ldi	r18, 0x01	; 1
     d6e:	51 50       	subi	r21, 0x01	; 1
     d70:	80 40       	sbci	r24, 0x00	; 0
     d72:	90 40       	sbci	r25, 0x00	; 0
     d74:	20 40       	sbci	r18, 0x00	; 0
     d76:	d9 f7       	brne	.-10     	; 0xd6e <__stack+0x46f>
     d78:	00 00       	nop
			delay();
			PORTD = 0x00;
     d7a:	1b b8       	out	0x0b, r1	; 11
     d7c:	3a ea       	ldi	r19, 0xAA	; 170
     d7e:	46 ee       	ldi	r20, 0xE6	; 230
     d80:	56 e9       	ldi	r21, 0x96	; 150
     d82:	81 e0       	ldi	r24, 0x01	; 1
     d84:	31 50       	subi	r19, 0x01	; 1
     d86:	40 40       	sbci	r20, 0x00	; 0
     d88:	50 40       	sbci	r21, 0x00	; 0
     d8a:	80 40       	sbci	r24, 0x00	; 0
     d8c:	d9 f7       	brne	.-10     	; 0xd84 <__stack+0x485>
     d8e:	00 00       	nop
			delay();
			PORTD = 0x00;
     d90:	1b b8       	out	0x0b, r1	; 11
     d92:	9a ea       	ldi	r25, 0xAA	; 170
     d94:	26 ee       	ldi	r18, 0xE6	; 230
     d96:	36 e9       	ldi	r19, 0x96	; 150
     d98:	41 e0       	ldi	r20, 0x01	; 1
     d9a:	91 50       	subi	r25, 0x01	; 1
     d9c:	20 40       	sbci	r18, 0x00	; 0
     d9e:	30 40       	sbci	r19, 0x00	; 0
     da0:	40 40       	sbci	r20, 0x00	; 0
     da2:	d9 f7       	brne	.-10     	; 0xd9a <__stack+0x49b>
     da4:	00 00       	nop
			delay();
			PORTD = 0x00;
     da6:	1b b8       	out	0x0b, r1	; 11
     da8:	5a ea       	ldi	r21, 0xAA	; 170
     daa:	86 ee       	ldi	r24, 0xE6	; 230
     dac:	96 e9       	ldi	r25, 0x96	; 150
     dae:	21 e0       	ldi	r18, 0x01	; 1
     db0:	51 50       	subi	r21, 0x01	; 1
     db2:	80 40       	sbci	r24, 0x00	; 0
     db4:	90 40       	sbci	r25, 0x00	; 0
     db6:	20 40       	sbci	r18, 0x00	; 0
     db8:	d9 f7       	brne	.-10     	; 0xdb0 <__stack+0x4b1>
     dba:	00 00       	nop
			delay();
			PORTD = 0x00;
     dbc:	1b b8       	out	0x0b, r1	; 11
     dbe:	3a ea       	ldi	r19, 0xAA	; 170
     dc0:	46 ee       	ldi	r20, 0xE6	; 230
     dc2:	56 e9       	ldi	r21, 0x96	; 150
     dc4:	81 e0       	ldi	r24, 0x01	; 1
     dc6:	31 50       	subi	r19, 0x01	; 1
     dc8:	40 40       	sbci	r20, 0x00	; 0
     dca:	50 40       	sbci	r21, 0x00	; 0
     dcc:	80 40       	sbci	r24, 0x00	; 0
     dce:	d9 f7       	brne	.-10     	; 0xdc6 <__stack+0x4c7>
     dd0:	00 00       	nop
     dd2:	d1 c2       	rjmp	.+1442   	; 0x1376 <__stack+0xa77>
			delay();
			break;
		case '.':
			//00 01 00 - Special Case (3 frames)
			PORTD = 0x00;
     dd4:	1b b8       	out	0x0b, r1	; 11
     dd6:	9a ea       	ldi	r25, 0xAA	; 170
     dd8:	26 ee       	ldi	r18, 0xE6	; 230
     dda:	36 e9       	ldi	r19, 0x96	; 150
     ddc:	41 e0       	ldi	r20, 0x01	; 1
     dde:	91 50       	subi	r25, 0x01	; 1
     de0:	20 40       	sbci	r18, 0x00	; 0
     de2:	30 40       	sbci	r19, 0x00	; 0
     de4:	40 40       	sbci	r20, 0x00	; 0
     de6:	d9 f7       	brne	.-10     	; 0xdde <__stack+0x4df>
     de8:	00 00       	nop
			delay();
			PORTD = 0x01;
     dea:	81 e0       	ldi	r24, 0x01	; 1
     dec:	8b b9       	out	0x0b, r24	; 11
     dee:	5a ea       	ldi	r21, 0xAA	; 170
     df0:	86 ee       	ldi	r24, 0xE6	; 230
     df2:	96 e9       	ldi	r25, 0x96	; 150
     df4:	21 e0       	ldi	r18, 0x01	; 1
     df6:	51 50       	subi	r21, 0x01	; 1
     df8:	80 40       	sbci	r24, 0x00	; 0
     dfa:	90 40       	sbci	r25, 0x00	; 0
     dfc:	20 40       	sbci	r18, 0x00	; 0
     dfe:	d9 f7       	brne	.-10     	; 0xdf6 <__stack+0x4f7>
     e00:	00 00       	nop
			delay();
			PORTD = 0x00;
     e02:	1b b8       	out	0x0b, r1	; 11
     e04:	3a ea       	ldi	r19, 0xAA	; 170
     e06:	46 ee       	ldi	r20, 0xE6	; 230
     e08:	56 e9       	ldi	r21, 0x96	; 150
     e0a:	81 e0       	ldi	r24, 0x01	; 1
     e0c:	31 50       	subi	r19, 0x01	; 1
     e0e:	40 40       	sbci	r20, 0x00	; 0
     e10:	50 40       	sbci	r21, 0x00	; 0
     e12:	80 40       	sbci	r24, 0x00	; 0
     e14:	d9 f7       	brne	.-10     	; 0xe0c <__stack+0x50d>
     e16:	00 00       	nop
     e18:	ae c2       	rjmp	.+1372   	; 0x1376 <__stack+0xa77>
			delay();
			break;
		case '?':
			//30 40 45 48 30
			PORTD = 0x30;
     e1a:	80 e3       	ldi	r24, 0x30	; 48
     e1c:	8b b9       	out	0x0b, r24	; 11
     e1e:	9a ea       	ldi	r25, 0xAA	; 170
     e20:	26 ee       	ldi	r18, 0xE6	; 230
     e22:	36 e9       	ldi	r19, 0x96	; 150
     e24:	41 e0       	ldi	r20, 0x01	; 1
     e26:	91 50       	subi	r25, 0x01	; 1
     e28:	20 40       	sbci	r18, 0x00	; 0
     e2a:	30 40       	sbci	r19, 0x00	; 0
     e2c:	40 40       	sbci	r20, 0x00	; 0
     e2e:	d9 f7       	brne	.-10     	; 0xe26 <__stack+0x527>
     e30:	00 00       	nop
			delay();
			PORTD = 0x40;
     e32:	90 e4       	ldi	r25, 0x40	; 64
     e34:	9b b9       	out	0x0b, r25	; 11
     e36:	5a ea       	ldi	r21, 0xAA	; 170
     e38:	96 ee       	ldi	r25, 0xE6	; 230
     e3a:	26 e9       	ldi	r18, 0x96	; 150
     e3c:	31 e0       	ldi	r19, 0x01	; 1
     e3e:	51 50       	subi	r21, 0x01	; 1
     e40:	90 40       	sbci	r25, 0x00	; 0
     e42:	20 40       	sbci	r18, 0x00	; 0
     e44:	30 40       	sbci	r19, 0x00	; 0
     e46:	d9 f7       	brne	.-10     	; 0xe3e <__stack+0x53f>
     e48:	00 00       	nop
			delay();
			PORTD = 0x45;
     e4a:	95 e4       	ldi	r25, 0x45	; 69
     e4c:	9b b9       	out	0x0b, r25	; 11
     e4e:	4a ea       	ldi	r20, 0xAA	; 170
     e50:	56 ee       	ldi	r21, 0xE6	; 230
     e52:	96 e9       	ldi	r25, 0x96	; 150
     e54:	21 e0       	ldi	r18, 0x01	; 1
     e56:	41 50       	subi	r20, 0x01	; 1
     e58:	50 40       	sbci	r21, 0x00	; 0
     e5a:	90 40       	sbci	r25, 0x00	; 0
     e5c:	20 40       	sbci	r18, 0x00	; 0
     e5e:	d9 f7       	brne	.-10     	; 0xe56 <__stack+0x557>
     e60:	00 00       	nop
			delay();
			PORTD = 0x48;
     e62:	98 e4       	ldi	r25, 0x48	; 72
     e64:	9b b9       	out	0x0b, r25	; 11
     e66:	3a ea       	ldi	r19, 0xAA	; 170
     e68:	46 ee       	ldi	r20, 0xE6	; 230
     e6a:	56 e9       	ldi	r21, 0x96	; 150
     e6c:	91 e0       	ldi	r25, 0x01	; 1
     e6e:	31 50       	subi	r19, 0x01	; 1
     e70:	40 40       	sbci	r20, 0x00	; 0
     e72:	50 40       	sbci	r21, 0x00	; 0
     e74:	90 40       	sbci	r25, 0x00	; 0
     e76:	d9 f7       	brne	.-10     	; 0xe6e <__stack+0x56f>
     e78:	00 00       	nop
			delay();
			PORTD = 0x30;
     e7a:	8b b9       	out	0x0b, r24	; 11
     e7c:	2a ea       	ldi	r18, 0xAA	; 170
     e7e:	36 ee       	ldi	r19, 0xE6	; 230
     e80:	46 e9       	ldi	r20, 0x96	; 150
     e82:	51 e0       	ldi	r21, 0x01	; 1
     e84:	21 50       	subi	r18, 0x01	; 1
     e86:	30 40       	sbci	r19, 0x00	; 0
     e88:	40 40       	sbci	r20, 0x00	; 0
     e8a:	50 40       	sbci	r21, 0x00	; 0
     e8c:	d9 f7       	brne	.-10     	; 0xe84 <__stack+0x585>
     e8e:	00 00       	nop
     e90:	72 c2       	rjmp	.+1252   	; 0x1376 <__stack+0xa77>
			delay();
			break;
		case '!':
			//00 7E 00 - Special Case (3 frames)
			PORTD = 0x00;
     e92:	1b b8       	out	0x0b, r1	; 11
     e94:	8a ea       	ldi	r24, 0xAA	; 170
     e96:	96 ee       	ldi	r25, 0xE6	; 230
     e98:	26 e9       	ldi	r18, 0x96	; 150
     e9a:	31 e0       	ldi	r19, 0x01	; 1
     e9c:	81 50       	subi	r24, 0x01	; 1
     e9e:	90 40       	sbci	r25, 0x00	; 0
     ea0:	20 40       	sbci	r18, 0x00	; 0
     ea2:	30 40       	sbci	r19, 0x00	; 0
     ea4:	d9 f7       	brne	.-10     	; 0xe9c <__stack+0x59d>
     ea6:	00 00       	nop
			delay();
			PORTD = 0x7E;
     ea8:	8e e7       	ldi	r24, 0x7E	; 126
     eaa:	8b b9       	out	0x0b, r24	; 11
     eac:	4a ea       	ldi	r20, 0xAA	; 170
     eae:	56 ee       	ldi	r21, 0xE6	; 230
     eb0:	86 e9       	ldi	r24, 0x96	; 150
     eb2:	91 e0       	ldi	r25, 0x01	; 1
     eb4:	41 50       	subi	r20, 0x01	; 1
     eb6:	50 40       	sbci	r21, 0x00	; 0
     eb8:	80 40       	sbci	r24, 0x00	; 0
     eba:	90 40       	sbci	r25, 0x00	; 0
     ebc:	d9 f7       	brne	.-10     	; 0xeb4 <__stack+0x5b5>
     ebe:	00 00       	nop
			delay();
			PORTD = 0x00;
     ec0:	1b b8       	out	0x0b, r1	; 11
     ec2:	2a ea       	ldi	r18, 0xAA	; 170
     ec4:	36 ee       	ldi	r19, 0xE6	; 230
     ec6:	46 e9       	ldi	r20, 0x96	; 150
     ec8:	51 e0       	ldi	r21, 0x01	; 1
     eca:	21 50       	subi	r18, 0x01	; 1
     ecc:	30 40       	sbci	r19, 0x00	; 0
     ece:	40 40       	sbci	r20, 0x00	; 0
     ed0:	50 40       	sbci	r21, 0x00	; 0
     ed2:	d9 f7       	brne	.-10     	; 0xeca <__stack+0x5cb>
     ed4:	00 00       	nop
     ed6:	4f c2       	rjmp	.+1182   	; 0x1376 <__stack+0xa77>
			delay();
			break;
		case '0':
			//3D 41 41 41 3D
			PORTD = 0x3D;
     ed8:	9d e3       	ldi	r25, 0x3D	; 61
     eda:	9b b9       	out	0x0b, r25	; 11
     edc:	8a ea       	ldi	r24, 0xAA	; 170
     ede:	26 ee       	ldi	r18, 0xE6	; 230
     ee0:	36 e9       	ldi	r19, 0x96	; 150
     ee2:	41 e0       	ldi	r20, 0x01	; 1
     ee4:	81 50       	subi	r24, 0x01	; 1
     ee6:	20 40       	sbci	r18, 0x00	; 0
     ee8:	30 40       	sbci	r19, 0x00	; 0
     eea:	40 40       	sbci	r20, 0x00	; 0
     eec:	d9 f7       	brne	.-10     	; 0xee4 <__stack+0x5e5>
     eee:	00 00       	nop
			delay();
			PORTD = 0x41;
     ef0:	81 e4       	ldi	r24, 0x41	; 65
     ef2:	8b b9       	out	0x0b, r24	; 11
     ef4:	5a ea       	ldi	r21, 0xAA	; 170
     ef6:	26 ee       	ldi	r18, 0xE6	; 230
     ef8:	36 e9       	ldi	r19, 0x96	; 150
     efa:	41 e0       	ldi	r20, 0x01	; 1
     efc:	51 50       	subi	r21, 0x01	; 1
     efe:	20 40       	sbci	r18, 0x00	; 0
     f00:	30 40       	sbci	r19, 0x00	; 0
     f02:	40 40       	sbci	r20, 0x00	; 0
     f04:	d9 f7       	brne	.-10     	; 0xefc <__stack+0x5fd>
     f06:	00 00       	nop
			delay();
			PORTD = 0x41;
     f08:	8b b9       	out	0x0b, r24	; 11
     f0a:	5a ea       	ldi	r21, 0xAA	; 170
     f0c:	26 ee       	ldi	r18, 0xE6	; 230
     f0e:	36 e9       	ldi	r19, 0x96	; 150
     f10:	41 e0       	ldi	r20, 0x01	; 1
     f12:	51 50       	subi	r21, 0x01	; 1
     f14:	20 40       	sbci	r18, 0x00	; 0
     f16:	30 40       	sbci	r19, 0x00	; 0
     f18:	40 40       	sbci	r20, 0x00	; 0
     f1a:	d9 f7       	brne	.-10     	; 0xf12 <__stack+0x613>
     f1c:	00 00       	nop
			delay();
			PORTD = 0x41;
     f1e:	8b b9       	out	0x0b, r24	; 11
     f20:	5a ea       	ldi	r21, 0xAA	; 170
     f22:	86 ee       	ldi	r24, 0xE6	; 230
     f24:	26 e9       	ldi	r18, 0x96	; 150
     f26:	31 e0       	ldi	r19, 0x01	; 1
     f28:	51 50       	subi	r21, 0x01	; 1
     f2a:	80 40       	sbci	r24, 0x00	; 0
     f2c:	20 40       	sbci	r18, 0x00	; 0
     f2e:	30 40       	sbci	r19, 0x00	; 0
     f30:	d9 f7       	brne	.-10     	; 0xf28 <__stack+0x629>
     f32:	00 00       	nop
			delay();
			PORTD = 0x3D;
     f34:	9b b9       	out	0x0b, r25	; 11
     f36:	4a ea       	ldi	r20, 0xAA	; 170
     f38:	56 ee       	ldi	r21, 0xE6	; 230
     f3a:	86 e9       	ldi	r24, 0x96	; 150
     f3c:	91 e0       	ldi	r25, 0x01	; 1
     f3e:	41 50       	subi	r20, 0x01	; 1
     f40:	50 40       	sbci	r21, 0x00	; 0
     f42:	80 40       	sbci	r24, 0x00	; 0
     f44:	90 40       	sbci	r25, 0x00	; 0
     f46:	d9 f7       	brne	.-10     	; 0xf3e <__stack+0x63f>
     f48:	00 00       	nop
     f4a:	15 c2       	rjmp	.+1066   	; 0x1376 <__stack+0xa77>
			delay();
			break;
		case '1':
			//11 21 7F 01 01
			PORTD = 0x11;
     f4c:	81 e1       	ldi	r24, 0x11	; 17
     f4e:	8b b9       	out	0x0b, r24	; 11
     f50:	2a ea       	ldi	r18, 0xAA	; 170
     f52:	36 ee       	ldi	r19, 0xE6	; 230
     f54:	46 e9       	ldi	r20, 0x96	; 150
     f56:	51 e0       	ldi	r21, 0x01	; 1
     f58:	21 50       	subi	r18, 0x01	; 1
     f5a:	30 40       	sbci	r19, 0x00	; 0
     f5c:	40 40       	sbci	r20, 0x00	; 0
     f5e:	50 40       	sbci	r21, 0x00	; 0
     f60:	d9 f7       	brne	.-10     	; 0xf58 <__stack+0x659>
     f62:	00 00       	nop
			delay();
			PORTD = 0x21;
     f64:	81 e2       	ldi	r24, 0x21	; 33
     f66:	8b b9       	out	0x0b, r24	; 11
     f68:	8a ea       	ldi	r24, 0xAA	; 170
     f6a:	96 ee       	ldi	r25, 0xE6	; 230
     f6c:	26 e9       	ldi	r18, 0x96	; 150
     f6e:	31 e0       	ldi	r19, 0x01	; 1
     f70:	81 50       	subi	r24, 0x01	; 1
     f72:	90 40       	sbci	r25, 0x00	; 0
     f74:	20 40       	sbci	r18, 0x00	; 0
     f76:	30 40       	sbci	r19, 0x00	; 0
     f78:	d9 f7       	brne	.-10     	; 0xf70 <__stack+0x671>
     f7a:	00 00       	nop
			delay();
			PORTD = 0x7F;
     f7c:	8f e7       	ldi	r24, 0x7F	; 127
     f7e:	8b b9       	out	0x0b, r24	; 11
     f80:	4a ea       	ldi	r20, 0xAA	; 170
     f82:	56 ee       	ldi	r21, 0xE6	; 230
     f84:	86 e9       	ldi	r24, 0x96	; 150
     f86:	91 e0       	ldi	r25, 0x01	; 1
     f88:	41 50       	subi	r20, 0x01	; 1
     f8a:	50 40       	sbci	r21, 0x00	; 0
     f8c:	80 40       	sbci	r24, 0x00	; 0
     f8e:	90 40       	sbci	r25, 0x00	; 0
     f90:	d9 f7       	brne	.-10     	; 0xf88 <__stack+0x689>
     f92:	00 00       	nop
			delay();
			PORTD = 0x01;
     f94:	81 e0       	ldi	r24, 0x01	; 1
     f96:	8b b9       	out	0x0b, r24	; 11
     f98:	2a ea       	ldi	r18, 0xAA	; 170
     f9a:	36 ee       	ldi	r19, 0xE6	; 230
     f9c:	46 e9       	ldi	r20, 0x96	; 150
     f9e:	51 e0       	ldi	r21, 0x01	; 1
     fa0:	21 50       	subi	r18, 0x01	; 1
     fa2:	30 40       	sbci	r19, 0x00	; 0
     fa4:	40 40       	sbci	r20, 0x00	; 0
     fa6:	50 40       	sbci	r21, 0x00	; 0
     fa8:	d9 f7       	brne	.-10     	; 0xfa0 <__stack+0x6a1>
     faa:	00 00       	nop
			delay();
			PORTD = 0x01;
     fac:	8b b9       	out	0x0b, r24	; 11
     fae:	8a ea       	ldi	r24, 0xAA	; 170
     fb0:	96 ee       	ldi	r25, 0xE6	; 230
     fb2:	26 e9       	ldi	r18, 0x96	; 150
     fb4:	31 e0       	ldi	r19, 0x01	; 1
     fb6:	81 50       	subi	r24, 0x01	; 1
     fb8:	90 40       	sbci	r25, 0x00	; 0
     fba:	20 40       	sbci	r18, 0x00	; 0
     fbc:	30 40       	sbci	r19, 0x00	; 0
     fbe:	d9 f7       	brne	.-10     	; 0xfb6 <__stack+0x6b7>
     fc0:	00 00       	nop
     fc2:	d9 c1       	rjmp	.+946    	; 0x1376 <__stack+0xa77>
			delay();
			break;
		case '2':
			//31 43 45 49 31
			PORTD = 0x31;
     fc4:	81 e3       	ldi	r24, 0x31	; 49
     fc6:	8b b9       	out	0x0b, r24	; 11
     fc8:	4a ea       	ldi	r20, 0xAA	; 170
     fca:	56 ee       	ldi	r21, 0xE6	; 230
     fcc:	96 e9       	ldi	r25, 0x96	; 150
     fce:	21 e0       	ldi	r18, 0x01	; 1
     fd0:	41 50       	subi	r20, 0x01	; 1
     fd2:	50 40       	sbci	r21, 0x00	; 0
     fd4:	90 40       	sbci	r25, 0x00	; 0
     fd6:	20 40       	sbci	r18, 0x00	; 0
     fd8:	d9 f7       	brne	.-10     	; 0xfd0 <__stack+0x6d1>
     fda:	00 00       	nop
			delay();
			PORTD = 0x43;
     fdc:	93 e4       	ldi	r25, 0x43	; 67
     fde:	9b b9       	out	0x0b, r25	; 11
     fe0:	3a ea       	ldi	r19, 0xAA	; 170
     fe2:	46 ee       	ldi	r20, 0xE6	; 230
     fe4:	56 e9       	ldi	r21, 0x96	; 150
     fe6:	91 e0       	ldi	r25, 0x01	; 1
     fe8:	31 50       	subi	r19, 0x01	; 1
     fea:	40 40       	sbci	r20, 0x00	; 0
     fec:	50 40       	sbci	r21, 0x00	; 0
     fee:	90 40       	sbci	r25, 0x00	; 0
     ff0:	d9 f7       	brne	.-10     	; 0xfe8 <__stack+0x6e9>
     ff2:	00 00       	nop
			delay();
			PORTD = 0x45;
     ff4:	95 e4       	ldi	r25, 0x45	; 69
     ff6:	9b b9       	out	0x0b, r25	; 11
     ff8:	2a ea       	ldi	r18, 0xAA	; 170
     ffa:	36 ee       	ldi	r19, 0xE6	; 230
     ffc:	46 e9       	ldi	r20, 0x96	; 150
     ffe:	51 e0       	ldi	r21, 0x01	; 1
    1000:	21 50       	subi	r18, 0x01	; 1
    1002:	30 40       	sbci	r19, 0x00	; 0
    1004:	40 40       	sbci	r20, 0x00	; 0
    1006:	50 40       	sbci	r21, 0x00	; 0
    1008:	d9 f7       	brne	.-10     	; 0x1000 <__stack+0x701>
    100a:	00 00       	nop
			delay();
			PORTD = 0x49;
    100c:	99 e4       	ldi	r25, 0x49	; 73
    100e:	9b b9       	out	0x0b, r25	; 11
    1010:	9a ea       	ldi	r25, 0xAA	; 170
    1012:	26 ee       	ldi	r18, 0xE6	; 230
    1014:	36 e9       	ldi	r19, 0x96	; 150
    1016:	41 e0       	ldi	r20, 0x01	; 1
    1018:	91 50       	subi	r25, 0x01	; 1
    101a:	20 40       	sbci	r18, 0x00	; 0
    101c:	30 40       	sbci	r19, 0x00	; 0
    101e:	40 40       	sbci	r20, 0x00	; 0
    1020:	d9 f7       	brne	.-10     	; 0x1018 <__stack+0x719>
    1022:	00 00       	nop
			delay();
			PORTD = 0x31;
    1024:	8b b9       	out	0x0b, r24	; 11
    1026:	5a ea       	ldi	r21, 0xAA	; 170
    1028:	86 ee       	ldi	r24, 0xE6	; 230
    102a:	96 e9       	ldi	r25, 0x96	; 150
    102c:	21 e0       	ldi	r18, 0x01	; 1
    102e:	51 50       	subi	r21, 0x01	; 1
    1030:	80 40       	sbci	r24, 0x00	; 0
    1032:	90 40       	sbci	r25, 0x00	; 0
    1034:	20 40       	sbci	r18, 0x00	; 0
    1036:	d9 f7       	brne	.-10     	; 0x102e <__stack+0x72f>
    1038:	00 00       	nop
    103a:	9d c1       	rjmp	.+826    	; 0x1376 <__stack+0xa77>
			delay();
			break;
		case '3':
			//22 49 49 49 36
			PORTD = 0x22;
    103c:	82 e2       	ldi	r24, 0x22	; 34
    103e:	8b b9       	out	0x0b, r24	; 11
    1040:	3a ea       	ldi	r19, 0xAA	; 170
    1042:	46 ee       	ldi	r20, 0xE6	; 230
    1044:	56 e9       	ldi	r21, 0x96	; 150
    1046:	81 e0       	ldi	r24, 0x01	; 1
    1048:	31 50       	subi	r19, 0x01	; 1
    104a:	40 40       	sbci	r20, 0x00	; 0
    104c:	50 40       	sbci	r21, 0x00	; 0
    104e:	80 40       	sbci	r24, 0x00	; 0
    1050:	d9 f7       	brne	.-10     	; 0x1048 <__stack+0x749>
    1052:	00 00       	nop
			delay();
			PORTD = 0x49;
    1054:	89 e4       	ldi	r24, 0x49	; 73
    1056:	8b b9       	out	0x0b, r24	; 11
    1058:	9a ea       	ldi	r25, 0xAA	; 170
    105a:	26 ee       	ldi	r18, 0xE6	; 230
    105c:	36 e9       	ldi	r19, 0x96	; 150
    105e:	41 e0       	ldi	r20, 0x01	; 1
    1060:	91 50       	subi	r25, 0x01	; 1
    1062:	20 40       	sbci	r18, 0x00	; 0
    1064:	30 40       	sbci	r19, 0x00	; 0
    1066:	40 40       	sbci	r20, 0x00	; 0
    1068:	d9 f7       	brne	.-10     	; 0x1060 <__stack+0x761>
    106a:	00 00       	nop
			delay();
			PORTD = 0x49;
    106c:	8b b9       	out	0x0b, r24	; 11
    106e:	5a ea       	ldi	r21, 0xAA	; 170
    1070:	96 ee       	ldi	r25, 0xE6	; 230
    1072:	26 e9       	ldi	r18, 0x96	; 150
    1074:	31 e0       	ldi	r19, 0x01	; 1
    1076:	51 50       	subi	r21, 0x01	; 1
    1078:	90 40       	sbci	r25, 0x00	; 0
    107a:	20 40       	sbci	r18, 0x00	; 0
    107c:	30 40       	sbci	r19, 0x00	; 0
    107e:	d9 f7       	brne	.-10     	; 0x1076 <__stack+0x777>
    1080:	00 00       	nop
			delay();
			PORTD = 0x49;
    1082:	8b b9       	out	0x0b, r24	; 11
    1084:	4a ea       	ldi	r20, 0xAA	; 170
    1086:	56 ee       	ldi	r21, 0xE6	; 230
    1088:	86 e9       	ldi	r24, 0x96	; 150
    108a:	91 e0       	ldi	r25, 0x01	; 1
    108c:	41 50       	subi	r20, 0x01	; 1
    108e:	50 40       	sbci	r21, 0x00	; 0
    1090:	80 40       	sbci	r24, 0x00	; 0
    1092:	90 40       	sbci	r25, 0x00	; 0
    1094:	d9 f7       	brne	.-10     	; 0x108c <__stack+0x78d>
    1096:	00 00       	nop
			delay();
			PORTD = 0x36;
    1098:	86 e3       	ldi	r24, 0x36	; 54
    109a:	8b b9       	out	0x0b, r24	; 11
    109c:	2a ea       	ldi	r18, 0xAA	; 170
    109e:	36 ee       	ldi	r19, 0xE6	; 230
    10a0:	46 e9       	ldi	r20, 0x96	; 150
    10a2:	51 e0       	ldi	r21, 0x01	; 1
    10a4:	21 50       	subi	r18, 0x01	; 1
    10a6:	30 40       	sbci	r19, 0x00	; 0
    10a8:	40 40       	sbci	r20, 0x00	; 0
    10aa:	50 40       	sbci	r21, 0x00	; 0
    10ac:	d9 f7       	brne	.-10     	; 0x10a4 <__stack+0x7a5>
    10ae:	00 00       	nop
    10b0:	62 c1       	rjmp	.+708    	; 0x1376 <__stack+0xa77>
			delay();
			break;
		case '4':
			//78 08 08 08 7F
			PORTD = 0x78;
    10b2:	88 e7       	ldi	r24, 0x78	; 120
    10b4:	8b b9       	out	0x0b, r24	; 11
    10b6:	8a ea       	ldi	r24, 0xAA	; 170
    10b8:	96 ee       	ldi	r25, 0xE6	; 230
    10ba:	26 e9       	ldi	r18, 0x96	; 150
    10bc:	31 e0       	ldi	r19, 0x01	; 1
    10be:	81 50       	subi	r24, 0x01	; 1
    10c0:	90 40       	sbci	r25, 0x00	; 0
    10c2:	20 40       	sbci	r18, 0x00	; 0
    10c4:	30 40       	sbci	r19, 0x00	; 0
    10c6:	d9 f7       	brne	.-10     	; 0x10be <__stack+0x7bf>
    10c8:	00 00       	nop
			delay();
			PORTD = 0x08;
    10ca:	88 e0       	ldi	r24, 0x08	; 8
    10cc:	8b b9       	out	0x0b, r24	; 11
    10ce:	4a ea       	ldi	r20, 0xAA	; 170
    10d0:	56 ee       	ldi	r21, 0xE6	; 230
    10d2:	96 e9       	ldi	r25, 0x96	; 150
    10d4:	21 e0       	ldi	r18, 0x01	; 1
    10d6:	41 50       	subi	r20, 0x01	; 1
    10d8:	50 40       	sbci	r21, 0x00	; 0
    10da:	90 40       	sbci	r25, 0x00	; 0
    10dc:	20 40       	sbci	r18, 0x00	; 0
    10de:	d9 f7       	brne	.-10     	; 0x10d6 <__stack+0x7d7>
    10e0:	00 00       	nop
			delay();
			PORTD = 0x08;
    10e2:	8b b9       	out	0x0b, r24	; 11
    10e4:	3a ea       	ldi	r19, 0xAA	; 170
    10e6:	46 ee       	ldi	r20, 0xE6	; 230
    10e8:	56 e9       	ldi	r21, 0x96	; 150
    10ea:	91 e0       	ldi	r25, 0x01	; 1
    10ec:	31 50       	subi	r19, 0x01	; 1
    10ee:	40 40       	sbci	r20, 0x00	; 0
    10f0:	50 40       	sbci	r21, 0x00	; 0
    10f2:	90 40       	sbci	r25, 0x00	; 0
    10f4:	d9 f7       	brne	.-10     	; 0x10ec <__stack+0x7ed>
    10f6:	00 00       	nop
			delay();
			PORTD = 0x08;
    10f8:	8b b9       	out	0x0b, r24	; 11
    10fa:	2a ea       	ldi	r18, 0xAA	; 170
    10fc:	36 ee       	ldi	r19, 0xE6	; 230
    10fe:	46 e9       	ldi	r20, 0x96	; 150
    1100:	51 e0       	ldi	r21, 0x01	; 1
    1102:	21 50       	subi	r18, 0x01	; 1
    1104:	30 40       	sbci	r19, 0x00	; 0
    1106:	40 40       	sbci	r20, 0x00	; 0
    1108:	50 40       	sbci	r21, 0x00	; 0
    110a:	d9 f7       	brne	.-10     	; 0x1102 <__stack+0x803>
    110c:	00 00       	nop
			delay();
			PORTD = 0x7F;
    110e:	8f e7       	ldi	r24, 0x7F	; 127
    1110:	8b b9       	out	0x0b, r24	; 11
    1112:	8a ea       	ldi	r24, 0xAA	; 170
    1114:	96 ee       	ldi	r25, 0xE6	; 230
    1116:	26 e9       	ldi	r18, 0x96	; 150
    1118:	31 e0       	ldi	r19, 0x01	; 1
    111a:	81 50       	subi	r24, 0x01	; 1
    111c:	90 40       	sbci	r25, 0x00	; 0
    111e:	20 40       	sbci	r18, 0x00	; 0
    1120:	30 40       	sbci	r19, 0x00	; 0
    1122:	d9 f7       	brne	.-10     	; 0x111a <__stack+0x81b>
    1124:	00 00       	nop
    1126:	27 c1       	rjmp	.+590    	; 0x1376 <__stack+0xa77>
			delay();
			break;
		case '5':
			//79 49 49 49 46
			PORTD = 0x79;
    1128:	89 e7       	ldi	r24, 0x79	; 121
    112a:	8b b9       	out	0x0b, r24	; 11
    112c:	4a ea       	ldi	r20, 0xAA	; 170
    112e:	56 ee       	ldi	r21, 0xE6	; 230
    1130:	86 e9       	ldi	r24, 0x96	; 150
    1132:	91 e0       	ldi	r25, 0x01	; 1
    1134:	41 50       	subi	r20, 0x01	; 1
    1136:	50 40       	sbci	r21, 0x00	; 0
    1138:	80 40       	sbci	r24, 0x00	; 0
    113a:	90 40       	sbci	r25, 0x00	; 0
    113c:	d9 f7       	brne	.-10     	; 0x1134 <__stack+0x835>
    113e:	00 00       	nop
			delay();
			PORTD = 0x49;
    1140:	89 e4       	ldi	r24, 0x49	; 73
    1142:	8b b9       	out	0x0b, r24	; 11
    1144:	2a ea       	ldi	r18, 0xAA	; 170
    1146:	36 ee       	ldi	r19, 0xE6	; 230
    1148:	46 e9       	ldi	r20, 0x96	; 150
    114a:	51 e0       	ldi	r21, 0x01	; 1
    114c:	21 50       	subi	r18, 0x01	; 1
    114e:	30 40       	sbci	r19, 0x00	; 0
    1150:	40 40       	sbci	r20, 0x00	; 0
    1152:	50 40       	sbci	r21, 0x00	; 0
    1154:	d9 f7       	brne	.-10     	; 0x114c <__stack+0x84d>
    1156:	00 00       	nop
			delay();
			PORTD = 0x49;
    1158:	8b b9       	out	0x0b, r24	; 11
    115a:	9a ea       	ldi	r25, 0xAA	; 170
    115c:	26 ee       	ldi	r18, 0xE6	; 230
    115e:	36 e9       	ldi	r19, 0x96	; 150
    1160:	41 e0       	ldi	r20, 0x01	; 1
    1162:	91 50       	subi	r25, 0x01	; 1
    1164:	20 40       	sbci	r18, 0x00	; 0
    1166:	30 40       	sbci	r19, 0x00	; 0
    1168:	40 40       	sbci	r20, 0x00	; 0
    116a:	d9 f7       	brne	.-10     	; 0x1162 <__stack+0x863>
    116c:	00 00       	nop
			delay();
			PORTD = 0x49;
    116e:	8b b9       	out	0x0b, r24	; 11
    1170:	5a ea       	ldi	r21, 0xAA	; 170
    1172:	86 ee       	ldi	r24, 0xE6	; 230
    1174:	96 e9       	ldi	r25, 0x96	; 150
    1176:	21 e0       	ldi	r18, 0x01	; 1
    1178:	51 50       	subi	r21, 0x01	; 1
    117a:	80 40       	sbci	r24, 0x00	; 0
    117c:	90 40       	sbci	r25, 0x00	; 0
    117e:	20 40       	sbci	r18, 0x00	; 0
    1180:	d9 f7       	brne	.-10     	; 0x1178 <__stack+0x879>
    1182:	00 00       	nop
			delay();
			PORTD = 0x46;
    1184:	86 e4       	ldi	r24, 0x46	; 70
    1186:	8b b9       	out	0x0b, r24	; 11
    1188:	3a ea       	ldi	r19, 0xAA	; 170
    118a:	46 ee       	ldi	r20, 0xE6	; 230
    118c:	56 e9       	ldi	r21, 0x96	; 150
    118e:	81 e0       	ldi	r24, 0x01	; 1
    1190:	31 50       	subi	r19, 0x01	; 1
    1192:	40 40       	sbci	r20, 0x00	; 0
    1194:	50 40       	sbci	r21, 0x00	; 0
    1196:	80 40       	sbci	r24, 0x00	; 0
    1198:	d9 f7       	brne	.-10     	; 0x1190 <__stack+0x891>
    119a:	00 00       	nop
    119c:	ec c0       	rjmp	.+472    	; 0x1376 <__stack+0xa77>
			delay();
			break;
		case '6':
			//3D 49 49 49 26
			PORTD = 0x3D;
    119e:	8d e3       	ldi	r24, 0x3D	; 61
    11a0:	8b b9       	out	0x0b, r24	; 11
    11a2:	9a ea       	ldi	r25, 0xAA	; 170
    11a4:	26 ee       	ldi	r18, 0xE6	; 230
    11a6:	36 e9       	ldi	r19, 0x96	; 150
    11a8:	41 e0       	ldi	r20, 0x01	; 1
    11aa:	91 50       	subi	r25, 0x01	; 1
    11ac:	20 40       	sbci	r18, 0x00	; 0
    11ae:	30 40       	sbci	r19, 0x00	; 0
    11b0:	40 40       	sbci	r20, 0x00	; 0
    11b2:	d9 f7       	brne	.-10     	; 0x11aa <__stack+0x8ab>
    11b4:	00 00       	nop
			delay();
			PORTD = 0x49;
    11b6:	89 e4       	ldi	r24, 0x49	; 73
    11b8:	8b b9       	out	0x0b, r24	; 11
    11ba:	5a ea       	ldi	r21, 0xAA	; 170
    11bc:	96 ee       	ldi	r25, 0xE6	; 230
    11be:	26 e9       	ldi	r18, 0x96	; 150
    11c0:	31 e0       	ldi	r19, 0x01	; 1
    11c2:	51 50       	subi	r21, 0x01	; 1
    11c4:	90 40       	sbci	r25, 0x00	; 0
    11c6:	20 40       	sbci	r18, 0x00	; 0
    11c8:	30 40       	sbci	r19, 0x00	; 0
    11ca:	d9 f7       	brne	.-10     	; 0x11c2 <__stack+0x8c3>
    11cc:	00 00       	nop
			delay();
			PORTD = 0x49;
    11ce:	8b b9       	out	0x0b, r24	; 11
    11d0:	4a ea       	ldi	r20, 0xAA	; 170
    11d2:	56 ee       	ldi	r21, 0xE6	; 230
    11d4:	96 e9       	ldi	r25, 0x96	; 150
    11d6:	21 e0       	ldi	r18, 0x01	; 1
    11d8:	41 50       	subi	r20, 0x01	; 1
    11da:	50 40       	sbci	r21, 0x00	; 0
    11dc:	90 40       	sbci	r25, 0x00	; 0
    11de:	20 40       	sbci	r18, 0x00	; 0
    11e0:	d9 f7       	brne	.-10     	; 0x11d8 <__stack+0x8d9>
    11e2:	00 00       	nop
			delay();
			PORTD = 0x49;
    11e4:	8b b9       	out	0x0b, r24	; 11
    11e6:	3a ea       	ldi	r19, 0xAA	; 170
    11e8:	46 ee       	ldi	r20, 0xE6	; 230
    11ea:	56 e9       	ldi	r21, 0x96	; 150
    11ec:	81 e0       	ldi	r24, 0x01	; 1
    11ee:	31 50       	subi	r19, 0x01	; 1
    11f0:	40 40       	sbci	r20, 0x00	; 0
    11f2:	50 40       	sbci	r21, 0x00	; 0
    11f4:	80 40       	sbci	r24, 0x00	; 0
    11f6:	d9 f7       	brne	.-10     	; 0x11ee <__stack+0x8ef>
    11f8:	00 00       	nop
			delay();
			PORTD = 0x26;
    11fa:	86 e2       	ldi	r24, 0x26	; 38
    11fc:	8b b9       	out	0x0b, r24	; 11
    11fe:	9a ea       	ldi	r25, 0xAA	; 170
    1200:	26 ee       	ldi	r18, 0xE6	; 230
    1202:	36 e9       	ldi	r19, 0x96	; 150
    1204:	41 e0       	ldi	r20, 0x01	; 1
    1206:	91 50       	subi	r25, 0x01	; 1
    1208:	20 40       	sbci	r18, 0x00	; 0
    120a:	30 40       	sbci	r19, 0x00	; 0
    120c:	40 40       	sbci	r20, 0x00	; 0
    120e:	d9 f7       	brne	.-10     	; 0x1206 <__stack+0x907>
    1210:	00 00       	nop
    1212:	b1 c0       	rjmp	.+354    	; 0x1376 <__stack+0xa77>
			delay();
			break;
		case '7':
			//41 42 44 48 70
			PORTD = 0x41;
    1214:	81 e4       	ldi	r24, 0x41	; 65
    1216:	8b b9       	out	0x0b, r24	; 11
    1218:	5a ea       	ldi	r21, 0xAA	; 170
    121a:	86 ee       	ldi	r24, 0xE6	; 230
    121c:	96 e9       	ldi	r25, 0x96	; 150
    121e:	21 e0       	ldi	r18, 0x01	; 1
    1220:	51 50       	subi	r21, 0x01	; 1
    1222:	80 40       	sbci	r24, 0x00	; 0
    1224:	90 40       	sbci	r25, 0x00	; 0
    1226:	20 40       	sbci	r18, 0x00	; 0
    1228:	d9 f7       	brne	.-10     	; 0x1220 <__stack+0x921>
    122a:	00 00       	nop
			delay();
			PORTD = 0x42;
    122c:	82 e4       	ldi	r24, 0x42	; 66
    122e:	8b b9       	out	0x0b, r24	; 11
    1230:	3a ea       	ldi	r19, 0xAA	; 170
    1232:	46 ee       	ldi	r20, 0xE6	; 230
    1234:	56 e9       	ldi	r21, 0x96	; 150
    1236:	81 e0       	ldi	r24, 0x01	; 1
    1238:	31 50       	subi	r19, 0x01	; 1
    123a:	40 40       	sbci	r20, 0x00	; 0
    123c:	50 40       	sbci	r21, 0x00	; 0
    123e:	80 40       	sbci	r24, 0x00	; 0
    1240:	d9 f7       	brne	.-10     	; 0x1238 <__stack+0x939>
    1242:	00 00       	nop
			delay();
			PORTD = 0x44;
    1244:	84 e4       	ldi	r24, 0x44	; 68
    1246:	8b b9       	out	0x0b, r24	; 11
    1248:	9a ea       	ldi	r25, 0xAA	; 170
    124a:	26 ee       	ldi	r18, 0xE6	; 230
    124c:	36 e9       	ldi	r19, 0x96	; 150
    124e:	41 e0       	ldi	r20, 0x01	; 1
    1250:	91 50       	subi	r25, 0x01	; 1
    1252:	20 40       	sbci	r18, 0x00	; 0
    1254:	30 40       	sbci	r19, 0x00	; 0
    1256:	40 40       	sbci	r20, 0x00	; 0
    1258:	d9 f7       	brne	.-10     	; 0x1250 <__stack+0x951>
    125a:	00 00       	nop
			delay();
			PORTD = 0x48;
    125c:	88 e4       	ldi	r24, 0x48	; 72
    125e:	8b b9       	out	0x0b, r24	; 11
    1260:	5a ea       	ldi	r21, 0xAA	; 170
    1262:	86 ee       	ldi	r24, 0xE6	; 230
    1264:	96 e9       	ldi	r25, 0x96	; 150
    1266:	21 e0       	ldi	r18, 0x01	; 1
    1268:	51 50       	subi	r21, 0x01	; 1
    126a:	80 40       	sbci	r24, 0x00	; 0
    126c:	90 40       	sbci	r25, 0x00	; 0
    126e:	20 40       	sbci	r18, 0x00	; 0
    1270:	d9 f7       	brne	.-10     	; 0x1268 <__stack+0x969>
    1272:	00 00       	nop
			delay();
			PORTD = 0x70;
    1274:	80 e7       	ldi	r24, 0x70	; 112
    1276:	8b b9       	out	0x0b, r24	; 11
    1278:	3a ea       	ldi	r19, 0xAA	; 170
    127a:	46 ee       	ldi	r20, 0xE6	; 230
    127c:	56 e9       	ldi	r21, 0x96	; 150
    127e:	81 e0       	ldi	r24, 0x01	; 1
    1280:	31 50       	subi	r19, 0x01	; 1
    1282:	40 40       	sbci	r20, 0x00	; 0
    1284:	50 40       	sbci	r21, 0x00	; 0
    1286:	80 40       	sbci	r24, 0x00	; 0
    1288:	d9 f7       	brne	.-10     	; 0x1280 <__stack+0x981>
    128a:	00 00       	nop
    128c:	74 c0       	rjmp	.+232    	; 0x1376 <__stack+0xa77>
			delay();
			break;
		case '8':
			//36 49 49 49 36
			PORTD = 0x36;
    128e:	96 e3       	ldi	r25, 0x36	; 54
    1290:	9b b9       	out	0x0b, r25	; 11
    1292:	2a ea       	ldi	r18, 0xAA	; 170
    1294:	36 ee       	ldi	r19, 0xE6	; 230
    1296:	46 e9       	ldi	r20, 0x96	; 150
    1298:	51 e0       	ldi	r21, 0x01	; 1
    129a:	21 50       	subi	r18, 0x01	; 1
    129c:	30 40       	sbci	r19, 0x00	; 0
    129e:	40 40       	sbci	r20, 0x00	; 0
    12a0:	50 40       	sbci	r21, 0x00	; 0
    12a2:	d9 f7       	brne	.-10     	; 0x129a <__stack+0x99b>
    12a4:	00 00       	nop
			delay();
			PORTD = 0x49;
    12a6:	89 e4       	ldi	r24, 0x49	; 73
    12a8:	8b b9       	out	0x0b, r24	; 11
    12aa:	2a ea       	ldi	r18, 0xAA	; 170
    12ac:	36 ee       	ldi	r19, 0xE6	; 230
    12ae:	46 e9       	ldi	r20, 0x96	; 150
    12b0:	51 e0       	ldi	r21, 0x01	; 1
    12b2:	21 50       	subi	r18, 0x01	; 1
    12b4:	30 40       	sbci	r19, 0x00	; 0
    12b6:	40 40       	sbci	r20, 0x00	; 0
    12b8:	50 40       	sbci	r21, 0x00	; 0
    12ba:	d9 f7       	brne	.-10     	; 0x12b2 <__stack+0x9b3>
    12bc:	00 00       	nop
			delay();
			PORTD = 0x49;
    12be:	8b b9       	out	0x0b, r24	; 11
    12c0:	2a ea       	ldi	r18, 0xAA	; 170
    12c2:	36 ee       	ldi	r19, 0xE6	; 230
    12c4:	46 e9       	ldi	r20, 0x96	; 150
    12c6:	51 e0       	ldi	r21, 0x01	; 1
    12c8:	21 50       	subi	r18, 0x01	; 1
    12ca:	30 40       	sbci	r19, 0x00	; 0
    12cc:	40 40       	sbci	r20, 0x00	; 0
    12ce:	50 40       	sbci	r21, 0x00	; 0
    12d0:	d9 f7       	brne	.-10     	; 0x12c8 <__stack+0x9c9>
    12d2:	00 00       	nop
			delay();
			PORTD = 0x49;
    12d4:	8b b9       	out	0x0b, r24	; 11
    12d6:	8a ea       	ldi	r24, 0xAA	; 170
    12d8:	26 ee       	ldi	r18, 0xE6	; 230
    12da:	36 e9       	ldi	r19, 0x96	; 150
    12dc:	41 e0       	ldi	r20, 0x01	; 1
    12de:	81 50       	subi	r24, 0x01	; 1
    12e0:	20 40       	sbci	r18, 0x00	; 0
    12e2:	30 40       	sbci	r19, 0x00	; 0
    12e4:	40 40       	sbci	r20, 0x00	; 0
    12e6:	d9 f7       	brne	.-10     	; 0x12de <__stack+0x9df>
    12e8:	00 00       	nop
			delay();
			PORTD = 0x36;
    12ea:	9b b9       	out	0x0b, r25	; 11
    12ec:	5a ea       	ldi	r21, 0xAA	; 170
    12ee:	86 ee       	ldi	r24, 0xE6	; 230
    12f0:	96 e9       	ldi	r25, 0x96	; 150
    12f2:	21 e0       	ldi	r18, 0x01	; 1
    12f4:	51 50       	subi	r21, 0x01	; 1
    12f6:	80 40       	sbci	r24, 0x00	; 0
    12f8:	90 40       	sbci	r25, 0x00	; 0
    12fa:	20 40       	sbci	r18, 0x00	; 0
    12fc:	d9 f7       	brne	.-10     	; 0x12f4 <__stack+0x9f5>
    12fe:	00 00       	nop
    1300:	3a c0       	rjmp	.+116    	; 0x1376 <__stack+0xa77>
			delay();
			break;
		case '9':
			//30 48 48 48 3F
			PORTD = 0x30;
    1302:	80 e3       	ldi	r24, 0x30	; 48
    1304:	8b b9       	out	0x0b, r24	; 11
    1306:	3a ea       	ldi	r19, 0xAA	; 170
    1308:	46 ee       	ldi	r20, 0xE6	; 230
    130a:	56 e9       	ldi	r21, 0x96	; 150
    130c:	81 e0       	ldi	r24, 0x01	; 1
    130e:	31 50       	subi	r19, 0x01	; 1
    1310:	40 40       	sbci	r20, 0x00	; 0
    1312:	50 40       	sbci	r21, 0x00	; 0
    1314:	80 40       	sbci	r24, 0x00	; 0
    1316:	d9 f7       	brne	.-10     	; 0x130e <__stack+0xa0f>
    1318:	00 00       	nop
			delay();
			PORTD = 0x48;
    131a:	88 e4       	ldi	r24, 0x48	; 72
    131c:	8b b9       	out	0x0b, r24	; 11
    131e:	9a ea       	ldi	r25, 0xAA	; 170
    1320:	26 ee       	ldi	r18, 0xE6	; 230
    1322:	36 e9       	ldi	r19, 0x96	; 150
    1324:	41 e0       	ldi	r20, 0x01	; 1
    1326:	91 50       	subi	r25, 0x01	; 1
    1328:	20 40       	sbci	r18, 0x00	; 0
    132a:	30 40       	sbci	r19, 0x00	; 0
    132c:	40 40       	sbci	r20, 0x00	; 0
    132e:	d9 f7       	brne	.-10     	; 0x1326 <__stack+0xa27>
    1330:	00 00       	nop
			delay();
			PORTD = 0x48;
    1332:	8b b9       	out	0x0b, r24	; 11
    1334:	5a ea       	ldi	r21, 0xAA	; 170
    1336:	96 ee       	ldi	r25, 0xE6	; 230
    1338:	26 e9       	ldi	r18, 0x96	; 150
    133a:	31 e0       	ldi	r19, 0x01	; 1
    133c:	51 50       	subi	r21, 0x01	; 1
    133e:	90 40       	sbci	r25, 0x00	; 0
    1340:	20 40       	sbci	r18, 0x00	; 0
    1342:	30 40       	sbci	r19, 0x00	; 0
    1344:	d9 f7       	brne	.-10     	; 0x133c <__stack+0xa3d>
    1346:	00 00       	nop
			delay();
			PORTD = 0x48;
    1348:	8b b9       	out	0x0b, r24	; 11
    134a:	4a ea       	ldi	r20, 0xAA	; 170
    134c:	56 ee       	ldi	r21, 0xE6	; 230
    134e:	86 e9       	ldi	r24, 0x96	; 150
    1350:	91 e0       	ldi	r25, 0x01	; 1
    1352:	41 50       	subi	r20, 0x01	; 1
    1354:	50 40       	sbci	r21, 0x00	; 0
    1356:	80 40       	sbci	r24, 0x00	; 0
    1358:	90 40       	sbci	r25, 0x00	; 0
    135a:	d9 f7       	brne	.-10     	; 0x1352 <__stack+0xa53>
    135c:	00 00       	nop
			delay();
			PORTD = 0x3F;
    135e:	8f e3       	ldi	r24, 0x3F	; 63
    1360:	8b b9       	out	0x0b, r24	; 11
    1362:	2a ea       	ldi	r18, 0xAA	; 170
    1364:	36 ee       	ldi	r19, 0xE6	; 230
    1366:	46 e9       	ldi	r20, 0x96	; 150
    1368:	51 e0       	ldi	r21, 0x01	; 1
    136a:	21 50       	subi	r18, 0x01	; 1
    136c:	30 40       	sbci	r19, 0x00	; 0
    136e:	40 40       	sbci	r20, 0x00	; 0
    1370:	50 40       	sbci	r21, 0x00	; 0
    1372:	d9 f7       	brne	.-10     	; 0x136a <__stack+0xa6b>
    1374:	00 00       	nop
			delay();
			break;
	}

	// Add an empty frame to separate letters from each other
	PORTD = 0x00;
    1376:	1b b8       	out	0x0b, r1	; 11
    1378:	8a ea       	ldi	r24, 0xAA	; 170
    137a:	96 ee       	ldi	r25, 0xE6	; 230
    137c:	26 e9       	ldi	r18, 0x96	; 150
    137e:	31 e0       	ldi	r19, 0x01	; 1
    1380:	81 50       	subi	r24, 0x01	; 1
    1382:	90 40       	sbci	r25, 0x00	; 0
    1384:	20 40       	sbci	r18, 0x00	; 0
    1386:	30 40       	sbci	r19, 0x00	; 0
    1388:	d9 f7       	brne	.-10     	; 0x1380 <__stack+0xa81>
    138a:	00 00       	nop
    138c:	08 95       	ret

0000138e <get_input>:
	delay();

}

void get_input(char * text, int length){
    138e:	ef 92       	push	r14
    1390:	ff 92       	push	r15
    1392:	0f 93       	push	r16
    1394:	1f 93       	push	r17
    1396:	cf 93       	push	r28
    1398:	df 93       	push	r29
    139a:	00 d0       	rcall	.+0      	; 0x139c <get_input+0xe>
    139c:	cd b7       	in	r28, 0x3d	; 61
    139e:	de b7       	in	r29, 0x3e	; 62
    13a0:	9a 83       	std	Y+2, r25	; 0x02
    13a2:	89 83       	std	Y+1, r24	; 0x01
    13a4:	7b 01       	movw	r14, r22
	for(int i = 0; i < length; i++){
    13a6:	16 16       	cp	r1, r22
    13a8:	17 06       	cpc	r1, r23
    13aa:	a4 f4       	brge	.+40     	; 0x13d4 <get_input+0x46>
    13ac:	00 e0       	ldi	r16, 0x00	; 0
    13ae:	10 e0       	ldi	r17, 0x00	; 0
		ASCII = '\0';
    13b0:	10 92 00 01 	sts	0x0100, r1	; 0x800100 <__data_end>
		while(ASCII == '\0'){
			UART_Get();
    13b4:	0e 94 8d 00 	call	0x11a	; 0x11a <UART_Get>
}

void get_input(char * text, int length){
	for(int i = 0; i < length; i++){
		ASCII = '\0';
		while(ASCII == '\0'){
    13b8:	80 91 00 01 	lds	r24, 0x0100	; 0x800100 <__data_end>
    13bc:	88 23       	and	r24, r24
    13be:	d1 f3       	breq	.-12     	; 0x13b4 <get_input+0x26>
			UART_Get();
		}
		text[i] = ASCII;
    13c0:	e9 81       	ldd	r30, Y+1	; 0x01
    13c2:	fa 81       	ldd	r31, Y+2	; 0x02
    13c4:	e0 0f       	add	r30, r16
    13c6:	f1 1f       	adc	r31, r17
    13c8:	80 83       	st	Z, r24
	delay();

}

void get_input(char * text, int length){
	for(int i = 0; i < length; i++){
    13ca:	0f 5f       	subi	r16, 0xFF	; 255
    13cc:	1f 4f       	sbci	r17, 0xFF	; 255
    13ce:	e0 16       	cp	r14, r16
    13d0:	f1 06       	cpc	r15, r17
    13d2:	71 f7       	brne	.-36     	; 0x13b0 <get_input+0x22>
		while(ASCII == '\0'){
			UART_Get();
		}
		text[i] = ASCII;
	}
	eeprom_write_block((const void *)&text, (void *)0, length);
    13d4:	a7 01       	movw	r20, r14
    13d6:	60 e0       	ldi	r22, 0x00	; 0
    13d8:	70 e0       	ldi	r23, 0x00	; 0
    13da:	ce 01       	movw	r24, r28
    13dc:	01 96       	adiw	r24, 0x01	; 1
    13de:	50 d0       	rcall	.+160    	; 0x1480 <eeprom_write_block>
	return;
}
    13e0:	0f 90       	pop	r0
    13e2:	0f 90       	pop	r0
    13e4:	df 91       	pop	r29
    13e6:	cf 91       	pop	r28
    13e8:	1f 91       	pop	r17
    13ea:	0f 91       	pop	r16
    13ec:	ff 90       	pop	r15
    13ee:	ef 90       	pop	r14
    13f0:	08 95       	ret

000013f2 <main>:

int main (void)
{
    13f2:	cf 93       	push	r28
    13f4:	df 93       	push	r29
    13f6:	00 d0       	rcall	.+0      	; 0x13f8 <main+0x6>
    13f8:	00 d0       	rcall	.+0      	; 0x13fa <main+0x8>
    13fa:	1f 92       	push	r1
    13fc:	cd b7       	in	r28, 0x3d	; 61
    13fe:	de b7       	in	r29, 0x3e	; 62
	int TEXT_LENGTH = 5;
	char TEXT[TEXT_LENGTH];
	//Set all pins on PORT D to output
	eeprom_read_block((void *)&TEXT, (const void *)0, TEXT_LENGTH);
    1400:	45 e0       	ldi	r20, 0x05	; 5
    1402:	50 e0       	ldi	r21, 0x00	; 0
    1404:	60 e0       	ldi	r22, 0x00	; 0
    1406:	70 e0       	ldi	r23, 0x00	; 0
    1408:	ce 01       	movw	r24, r28
    140a:	01 96       	adiw	r24, 0x01	; 1
    140c:	29 d0       	rcall	.+82     	; 0x1460 <eeprom_read_block>
	DDRD = 0xFF;
    140e:	8f ef       	ldi	r24, 0xFF	; 255
    1410:	8a b9       	out	0x0a, r24	; 10

	//Initialize the board
	board_init();
    1412:	0e 94 96 00 	call	0x12c	; 0x12c <board_init>
	ASCII = '\0';
    1416:	10 92 00 01 	sts	0x0100, r1	; 0x800100 <__data_end>
    141a:	7e 01       	movw	r14, r28
    141c:	86 e0       	ldi	r24, 0x06	; 6
    141e:	e8 0e       	add	r14, r24
    1420:	f1 1c       	adc	r15, r1
	while(1) {
		UART_Get();
    1422:	0e 94 8d 00 	call	0x11a	; 0x11a <UART_Get>
		if(ASCII != '\0'){
    1426:	80 91 00 01 	lds	r24, 0x0100	; 0x800100 <__data_end>
    142a:	88 23       	and	r24, r24
    142c:	79 f0       	breq	.+30     	; 0x144c <main+0x5a>
			get_input(TEXT, TEXT_LENGTH);
    142e:	65 e0       	ldi	r22, 0x05	; 5
    1430:	70 e0       	ldi	r23, 0x00	; 0
    1432:	ce 01       	movw	r24, r28
    1434:	01 96       	adiw	r24, 0x01	; 1
    1436:	ab df       	rcall	.-170    	; 0x138e <get_input>
    1438:	09 c0       	rjmp	.+18     	; 0x144c <main+0x5a>
		}
		for(int i = 0; i < TEXT_LENGTH; i++){
			displayCharacter(TEXT[i]);
    143a:	f8 01       	movw	r30, r16
    143c:	81 91       	ld	r24, Z+
    143e:	8f 01       	movw	r16, r30
    1440:	0e 94 9f 00 	call	0x13e	; 0x13e <displayCharacter>
	while(1) {
		UART_Get();
		if(ASCII != '\0'){
			get_input(TEXT, TEXT_LENGTH);
		}
		for(int i = 0; i < TEXT_LENGTH; i++){
    1444:	0e 15       	cp	r16, r14
    1446:	1f 05       	cpc	r17, r15
    1448:	c1 f7       	brne	.-16     	; 0x143a <main+0x48>
    144a:	eb cf       	rjmp	.-42     	; 0x1422 <main+0x30>
    144c:	8e 01       	movw	r16, r28
    144e:	0f 5f       	subi	r16, 0xFF	; 255
    1450:	1f 4f       	sbci	r17, 0xFF	; 255
    1452:	f3 cf       	rjmp	.-26     	; 0x143a <main+0x48>

00001454 <__tablejump2__>:
    1454:	ee 0f       	add	r30, r30
    1456:	ff 1f       	adc	r31, r31
    1458:	05 90       	lpm	r0, Z+
    145a:	f4 91       	lpm	r31, Z
    145c:	e0 2d       	mov	r30, r0
    145e:	09 94       	ijmp

00001460 <eeprom_read_block>:
    1460:	dc 01       	movw	r26, r24
    1462:	cb 01       	movw	r24, r22

00001464 <eeprom_read_blraw>:
    1464:	fc 01       	movw	r30, r24
    1466:	f9 99       	sbic	0x1f, 1	; 31
    1468:	fe cf       	rjmp	.-4      	; 0x1466 <eeprom_read_blraw+0x2>
    146a:	06 c0       	rjmp	.+12     	; 0x1478 <eeprom_read_blraw+0x14>
    146c:	f2 bd       	out	0x22, r31	; 34
    146e:	e1 bd       	out	0x21, r30	; 33
    1470:	f8 9a       	sbi	0x1f, 0	; 31
    1472:	31 96       	adiw	r30, 0x01	; 1
    1474:	00 b4       	in	r0, 0x20	; 32
    1476:	0d 92       	st	X+, r0
    1478:	41 50       	subi	r20, 0x01	; 1
    147a:	50 40       	sbci	r21, 0x00	; 0
    147c:	b8 f7       	brcc	.-18     	; 0x146c <eeprom_read_blraw+0x8>
    147e:	08 95       	ret

00001480 <eeprom_write_block>:
    1480:	dc 01       	movw	r26, r24
    1482:	cb 01       	movw	r24, r22
    1484:	02 c0       	rjmp	.+4      	; 0x148a <eeprom_write_block+0xa>
    1486:	2d 91       	ld	r18, X+
    1488:	05 d0       	rcall	.+10     	; 0x1494 <eeprom_write_r18>
    148a:	41 50       	subi	r20, 0x01	; 1
    148c:	50 40       	sbci	r21, 0x00	; 0
    148e:	d8 f7       	brcc	.-10     	; 0x1486 <eeprom_write_block+0x6>
    1490:	08 95       	ret

00001492 <eeprom_write_byte>:
    1492:	26 2f       	mov	r18, r22

00001494 <eeprom_write_r18>:
    1494:	f9 99       	sbic	0x1f, 1	; 31
    1496:	fe cf       	rjmp	.-4      	; 0x1494 <eeprom_write_r18>
    1498:	1f ba       	out	0x1f, r1	; 31
    149a:	92 bd       	out	0x22, r25	; 34
    149c:	81 bd       	out	0x21, r24	; 33
    149e:	20 bd       	out	0x20, r18	; 32
    14a0:	0f b6       	in	r0, 0x3f	; 63
    14a2:	f8 94       	cli
    14a4:	fa 9a       	sbi	0x1f, 2	; 31
    14a6:	f9 9a       	sbi	0x1f, 1	; 31
    14a8:	0f be       	out	0x3f, r0	; 63
    14aa:	01 96       	adiw	r24, 0x01	; 1
    14ac:	08 95       	ret

000014ae <_exit>:
    14ae:	f8 94       	cli

000014b0 <__stop_program>:
    14b0:	ff cf       	rjmp	.-2      	; 0x14b0 <__stop_program>
